(dp0
S'history'
p1
(lp2
(lp3
I0
aI2
aS'B2'
p4
aS'B1'
p5
aa(lp6
I0
aI2
ag4
ag4
aa(lp7
I0
aI2
ag4
ag4
aa(lp8
I0
aI2
ag4
ag4
aa(lp9
I0
aI2
ag4
ag4
aa(lp10
I0
aI2
ag4
aS'B3'
p11
aa(lp12
I0
aI2
ag4
ag4
aa(lp13
I0
aI2
ag4
ag11
aa(lp14
I0
aI2
ag4
ag4
aa(lp15
I0
aI2
ag4
ag5
aa(lp16
I0
aI2
ag4
ag4
aa(lp17
I0
aI2
ag4
ag4
aa(lp18
I0
aI2
ag4
ag4
aa(lp19
I0
aI2
ag4
ag4
aa(lp20
I0
aI2
ag4
ag11
aa(lp21
I0
aI2
ag4
ag11
aa(lp22
I0
aI2
ag4
ag11
aa(lp23
I0
aI2
ag4
ag5
aa(lp24
I0
aI2
ag4
ag5
aa(lp25
I0
aI2
ag4
ag5
aa(lp26
I0
aI2
ag4
ag5
aa(lp27
I0
aI2
ag4
ag5
aa(lp28
I0
aI2
ag4
ag5
aa(lp29
I0
aI2
ag4
ag5
aa(lp30
I0
aI2
ag4
ag4
aa(lp31
I0
aI2
ag4
ag4
aa(lp32
I0
aI2
ag4
ag4
aa(lp33
I0
aI2
ag4
ag4
aa(lp34
I0
aI2
ag4
ag4
aa(lp35
I0
aI2
ag4
ag4
aa(lp36
I0
aI2
ag4
ag4
aa(lp37
I0
aI2
ag4
ag4
aa(lp38
I0
aI2
ag4
ag4
aa(lp39
I0
aI2
ag4
ag4
aa(lp40
I0
aI2
ag4
ag4
aa(lp41
I0
aI2
ag4
ag4
aa(lp42
I0
aI2
ag4
ag4
aa(lp43
I0
aI2
ag4
ag4
aa(lp44
I0
aI2
ag4
ag4
aa(lp45
I0
aI2
ag4
ag4
aa(lp46
I0
aI2
ag4
ag4
aa(lp47
I0
aI2
ag4
ag4
aa(lp48
I0
aI2
ag4
ag4
aa(lp49
I0
aI2
ag4
ag4
aa(lp50
I0
aI2
ag4
ag4
aa(lp51
I0
aI2
ag4
ag4
aa(lp52
I0
aI2
ag4
ag4
aa(lp53
I0
aI2
ag4
ag4
aa(lp54
I0
aI2
ag4
ag4
aa(lp55
I0
aI2
ag4
ag4
aa(lp56
I0
aI2
ag4
ag4
aa(lp57
I0
aI2
ag4
ag4
aa(lp58
I0
aI2
ag4
ag4
aa(lp59
I0
aI2
ag4
ag4
aa(lp60
I0
aI2
ag4
ag4
aa(lp61
I0
aI2
ag4
ag4
aa(lp62
I0
aI2
ag4
ag4
aa(lp63
I0
aI2
ag4
ag4
aa(lp64
I0
aI2
ag4
ag4
aa(lp65
I0
aI2
ag4
ag4
aa(lp66
I0
aI2
ag4
ag4
aa(lp67
I0
aI2
ag4
ag4
aa(lp68
I0
aI2
ag4
ag4
aa(lp69
I0
aI2
ag4
ag4
aa(lp70
I0
aI2
ag4
ag4
aa(lp71
I0
aI2
ag4
ag4
aa(lp72
I0
aI2
ag4
ag4
aa(lp73
I0
aI2
ag4
ag4
aa(lp74
I0
aI2
ag4
ag4
aa(lp75
I0
aI2
ag4
ag4
aa(lp76
I0
aI2
ag4
ag4
aa(lp77
I0
aI2
ag4
ag4
aa(lp78
I0
aI2
ag4
ag4
aa(lp79
I0
aI2
ag4
ag4
aa(lp80
I0
aI2
ag4
ag4
aa(lp81
I0
aI2
ag4
ag4
aa(lp82
I0
aI2
ag4
ag4
aa(lp83
I0
aI2
ag4
ag4
aa(lp84
I0
aI2
ag4
ag4
aa(lp85
I0
aI2
ag4
ag4
aa(lp86
I1
aI3
ag4
ag11
aa(lp87
I1
aI3
ag4
ag11
aa(lp88
I1
aI3
ag4
ag11
aa(lp89
I1
aI3
ag4
ag11
aa(lp90
I1
aI3
ag4
ag5
aa(lp91
I1
aI3
ag4
ag11
aa(lp92
I1
aI3
ag4
ag11
aa(lp93
I1
aI3
ag4
ag11
aa(lp94
I1
aI3
ag4
ag11
aa(lp95
I1
aI3
ag4
ag11
aa(lp96
I1
aI3
ag4
ag5
aa(lp97
I1
aI3
ag4
ag5
aa(lp98
I1
aI3
ag4
ag11
aa(lp99
I1
aI3
ag4
ag11
aa(lp100
I1
aI3
ag4
ag4
aa(lp101
I1
aI3
ag4
ag4
aa(lp102
I1
aI3
ag4
ag4
aa(lp103
I1
aI3
ag4
ag4
aa(lp104
I1
aI3
ag4
ag4
aa(lp105
I1
aI3
ag4
ag4
aa(lp106
I1
aI3
ag4
ag4
aa(lp107
I1
aI3
ag4
ag4
aa(lp108
I1
aI3
ag4
ag4
aa(lp109
I1
aI3
ag4
ag4
aa(lp110
I1
aI3
ag4
ag4
aa(lp111
I1
aI3
ag4
ag4
aa(lp112
I1
aI3
ag4
ag4
aa(lp113
I1
aI3
ag4
ag4
aa(lp114
I1
aI3
ag4
ag4
aa(lp115
I1
aI3
ag4
ag4
aa(lp116
I1
aI3
ag4
ag4
aa(lp117
I1
aI3
ag4
ag4
aa(lp118
I1
aI3
ag4
ag4
aa(lp119
I1
aI3
ag4
ag4
aa(lp120
I1
aI3
ag4
ag4
aa(lp121
I1
aI3
ag4
ag4
aa(lp122
I1
aI3
ag4
ag4
aa(lp123
I1
aI3
ag4
ag4
aa(lp124
I1
aI3
ag4
ag4
aa(lp125
I1
aI3
ag4
ag4
aa(lp126
I1
aI3
ag4
ag4
aa(lp127
I1
aI3
ag4
ag4
aa(lp128
I1
aI3
ag4
ag4
aa(lp129
I1
aI3
ag4
ag4
aa(lp130
I1
aI3
ag4
ag4
aa(lp131
I1
aI3
ag4
ag4
aa(lp132
I1
aI3
ag4
ag4
aa(lp133
I1
aI3
ag4
ag4
aa(lp134
I1
aI3
ag4
ag4
aa(lp135
I1
aI3
ag4
ag4
aa(lp136
I1
aI3
ag4
ag4
aa(lp137
I1
aI3
ag4
ag4
aa(lp138
I1
aI3
ag4
ag4
aa(lp139
I1
aI3
ag4
ag4
aa(lp140
I1
aI3
ag4
ag4
aa(lp141
I1
aI3
ag4
ag4
aa(lp142
I1
aI3
ag4
ag4
aa(lp143
I1
aI3
ag4
ag4
aa(lp144
I1
aI3
ag4
ag4
aa(lp145
I1
aI3
ag4
ag4
aa(lp146
I1
aI3
ag4
ag4
aa(lp147
I1
aI3
ag4
ag4
aa(lp148
I1
aI3
ag4
ag4
aa(lp149
I1
aI3
ag4
ag4
aa(lp150
I1
aI3
ag4
ag4
aa(lp151
I1
aI3
ag4
ag4
aa(lp152
I1
aI3
ag4
ag4
aa(lp153
I1
aI3
ag4
ag4
aa(lp154
I1
aI3
ag4
ag4
aa(lp155
I1
aI3
ag4
ag4
aa(lp156
I1
aI3
ag4
ag4
aa(lp157
I1
aI3
ag4
ag4
aa(lp158
I1
aI3
ag4
ag4
aa(lp159
I2
aI5
ag4
ag5
aa(lp160
I2
aI5
ag4
ag11
aa(lp161
I2
aI5
ag4
ag11
aa(lp162
I2
aI5
ag4
ag11
aa(lp163
I2
aI5
ag4
ag11
aa(lp164
I2
aI5
ag4
ag11
aa(lp165
I2
aI5
ag4
ag11
aa(lp166
I2
aI5
ag4
ag11
aa(lp167
I2
aI5
ag4
ag5
aa(lp168
I2
aI5
ag4
ag11
aa(lp169
I2
aI5
ag4
ag5
aa(lp170
I2
aI5
ag4
ag11
aa(lp171
I2
aI5
ag4
ag5
aa(lp172
I2
aI5
ag4
ag5
aa(lp173
I2
aI5
ag4
ag5
aa(lp174
I2
aI5
ag4
ag4
aa(lp175
I2
aI5
ag4
ag4
aa(lp176
I2
aI5
ag4
ag4
aa(lp177
I2
aI5
ag4
ag4
aa(lp178
I2
aI5
ag4
ag4
aa(lp179
I2
aI5
ag4
ag11
aa(lp180
I2
aI5
ag4
ag4
aa(lp181
I2
aI5
ag4
ag4
aa(lp182
I2
aI5
ag4
ag4
aa(lp183
I2
aI5
ag4
ag4
aa(lp184
I2
aI5
ag4
ag4
aa(lp185
I2
aI5
ag4
ag4
aa(lp186
I2
aI5
ag4
ag4
aa(lp187
I2
aI5
ag4
ag4
aa(lp188
I2
aI5
ag4
ag4
aa(lp189
I2
aI5
ag4
ag4
aa(lp190
I2
aI5
ag4
ag4
aa(lp191
I2
aI5
ag4
ag4
aa(lp192
I2
aI5
ag4
ag4
aa(lp193
I2
aI5
ag4
ag4
aa(lp194
I2
aI5
ag4
ag4
aa(lp195
I2
aI5
ag4
ag4
aa(lp196
I2
aI5
ag4
ag4
aa(lp197
I2
aI5
ag4
ag4
aa(lp198
I2
aI5
ag4
ag4
aa(lp199
I2
aI5
ag4
ag4
aa(lp200
I2
aI5
ag4
ag4
aa(lp201
I2
aI5
ag4
ag4
aa(lp202
I2
aI5
ag4
ag4
aa(lp203
I2
aI5
ag4
ag4
aa(lp204
I2
aI5
ag4
ag4
aa(lp205
I2
aI5
ag4
ag4
aa(lp206
I2
aI5
ag4
ag4
aa(lp207
I2
aI5
ag4
ag4
aa(lp208
I2
aI5
ag4
ag4
aa(lp209
I2
aI5
ag4
ag4
aa(lp210
I2
aI5
ag4
ag4
aa(lp211
I2
aI5
ag4
ag4
aa(lp212
I2
aI5
ag4
ag4
aa(lp213
I2
aI5
ag4
ag4
aa(lp214
I2
aI5
ag4
ag4
aa(lp215
I2
aI5
ag4
ag4
aa(lp216
I2
aI5
ag4
ag4
aa(lp217
I2
aI5
ag4
ag4
aa(lp218
I2
aI5
ag4
ag4
aa(lp219
I2
aI5
ag4
ag4
aa(lp220
I2
aI5
ag4
ag4
aa(lp221
I2
aI5
ag4
ag4
aa(lp222
I2
aI5
ag4
ag4
aa(lp223
I2
aI5
ag4
ag4
aa(lp224
I2
aI5
ag4
ag4
aa(lp225
I2
aI5
ag4
ag4
aa(lp226
I2
aI5
ag4
ag4
aa(lp227
I2
aI5
ag4
ag4
aa(lp228
I2
aI5
ag4
ag4
aa(lp229
I2
aI5
ag4
ag4
aa(lp230
I2
aI5
ag4
ag4
aa(lp231
I2
aI5
ag4
ag4
aa(lp232
I2
aI5
ag4
ag4
aa(lp233
I2
aI5
ag4
ag4
aa(lp234
I2
aI5
ag4
ag4
aa(lp235
I2
aI5
ag4
ag4
aa(lp236
I2
aI5
ag4
ag4
aa(lp237
I2
aI5
ag4
ag4
aa(lp238
I2
aI5
ag4
ag4
aa(lp239
I2
aI5
ag4
ag4
aa(lp240
I2
aI5
ag4
ag4
aa(lp241
I2
aI5
ag4
ag4
aa(lp242
I2
aI5
ag4
ag4
aa(lp243
I2
aI5
ag4
ag4
aa(lp244
I3
aI6
ag11
ag5
aa(lp245
I3
aI6
ag11
ag5
aa(lp246
I3
aI6
ag11
ag5
aa(lp247
I3
aI6
ag11
ag5
aa(lp248
I3
aI6
ag11
ag5
aa(lp249
I3
aI6
ag11
ag5
aa(lp250
I3
aI6
ag11
ag5
aa(lp251
I3
aI6
ag11
ag5
aa(lp252
I3
aI6
ag11
ag5
aa(lp253
I3
aI6
ag11
ag5
aa(lp254
I3
aI6
ag11
ag5
aa(lp255
I3
aI6
ag11
ag5
aa(lp256
I3
aI6
ag11
ag5
aa(lp257
I3
aI6
ag11
ag5
aa(lp258
I3
aI6
ag11
ag5
aa(lp259
I3
aI6
ag11
ag5
aa(lp260
I3
aI6
ag11
ag5
aa(lp261
I3
aI6
ag11
ag5
aa(lp262
I3
aI6
ag11
ag5
aa(lp263
I3
aI6
ag11
ag5
aa(lp264
I3
aI6
ag11
ag5
aa(lp265
I3
aI6
ag11
ag5
aa(lp266
I3
aI6
ag11
ag5
aa(lp267
I3
aI6
ag11
ag5
aa(lp268
I3
aI6
ag11
ag5
aa(lp269
I3
aI6
ag11
ag5
aa(lp270
I3
aI6
ag11
ag5
aa(lp271
I3
aI6
ag11
ag11
aa(lp272
I3
aI6
ag11
ag11
aa(lp273
I3
aI6
ag11
ag11
aa(lp274
I3
aI6
ag11
ag11
aa(lp275
I3
aI6
ag11
ag11
aa(lp276
I3
aI6
ag11
ag11
aa(lp277
I3
aI6
ag11
ag11
aa(lp278
I3
aI6
ag11
ag11
aa(lp279
I3
aI6
ag11
ag11
aa(lp280
I3
aI6
ag11
ag11
aa(lp281
I3
aI6
ag11
ag11
aa(lp282
I3
aI6
ag11
ag11
aa(lp283
I3
aI6
ag11
ag11
aa(lp284
I3
aI6
ag11
ag11
aa(lp285
I3
aI6
ag11
ag11
aa(lp286
I3
aI6
ag11
ag11
aa(lp287
I3
aI6
ag11
ag11
aa(lp288
I3
aI6
ag11
ag11
aa(lp289
I3
aI6
ag11
ag11
aa(lp290
I3
aI6
ag11
ag11
aa(lp291
I3
aI6
ag11
ag11
aa(lp292
I3
aI6
ag11
ag11
aa(lp293
I3
aI6
ag11
ag11
aa(lp294
I3
aI6
ag11
ag11
aa(lp295
I3
aI6
ag11
ag11
aa(lp296
I3
aI6
ag11
ag11
aa(lp297
I3
aI6
ag11
ag11
aa(lp298
I3
aI6
ag11
ag11
aa(lp299
I3
aI6
ag11
ag11
aa(lp300
I3
aI6
ag11
ag11
aa(lp301
I3
aI6
ag11
ag11
aa(lp302
I3
aI6
ag11
ag11
aa(lp303
I3
aI6
ag11
ag11
aa(lp304
I3
aI6
ag11
ag11
aa(lp305
I3
aI6
ag11
ag11
aa(lp306
I3
aI6
ag11
ag11
aa(lp307
I3
aI6
ag11
ag11
aa(lp308
I3
aI6
ag11
ag11
aa(lp309
I3
aI6
ag11
ag11
aa(lp310
I3
aI6
ag11
ag11
aa(lp311
I3
aI6
ag11
ag11
aa(lp312
I3
aI6
ag11
ag11
aa(lp313
I3
aI6
ag11
ag11
aa(lp314
I3
aI6
ag11
ag11
aa(lp315
I3
aI6
ag11
ag11
aa(lp316
I3
aI6
ag11
ag11
aa(lp317
I3
aI6
ag11
ag11
aa(lp318
I3
aI6
ag11
ag11
aa(lp319
I3
aI6
ag11
ag11
aa(lp320
I3
aI6
ag11
ag11
aa(lp321
I3
aI6
ag11
ag11
aa(lp322
I3
aI6
ag11
ag11
aa(lp323
I3
aI6
ag11
ag11
aa(lp324
I3
aI6
ag11
ag11
aa(lp325
I3
aI6
ag11
ag11
aa(lp326
I3
aI6
ag11
ag11
aa(lp327
I3
aI6
ag11
ag11
aa(lp328
I3
aI6
ag11
ag11
aa(lp329
I3
aI6
ag11
ag11
aa(lp330
I3
aI6
ag11
ag11
aa(lp331
I3
aI6
ag11
ag11
aa(lp332
I3
aI6
ag11
ag11
aa(lp333
I3
aI6
ag11
ag11
aa(lp334
I3
aI6
ag11
ag11
aa(lp335
I3
aI6
ag11
ag11
aa(lp336
I3
aI6
ag11
ag11
aa(lp337
I3
aI6
ag11
ag11
aa(lp338
I3
aI6
ag11
ag11
aa(lp339
I3
aI6
ag11
ag11
aa(lp340
I3
aI6
ag11
ag11
aa(lp341
I3
aI6
ag11
ag11
aa(lp342
I3
aI6
ag11
ag11
aa(lp343
I3
aI6
ag11
ag11
aa(lp344
I3
aI6
ag11
ag11
aa(lp345
I3
aI6
ag11
ag11
aa(lp346
I3
aI6
ag11
ag11
aa(lp347
I3
aI6
ag11
ag11
aa(lp348
I3
aI6
ag11
ag11
aa(lp349
I3
aI6
ag11
ag11
aa(lp350
I3
aI6
ag11
ag11
aa(lp351
I3
aI6
ag11
ag11
aa(lp352
I3
aI6
ag11
ag11
aa(lp353
I3
aI6
ag11
ag11
aa(lp354
I3
aI6
ag11
ag11
aa(lp355
I3
aI6
ag11
ag11
aa(lp356
I3
aI6
ag11
ag11
aa(lp357
I3
aI6
ag11
ag11
aa(lp358
I3
aI6
ag11
ag11
aa(lp359
I3
aI6
ag11
ag11
aa(lp360
I3
aI6
ag11
ag11
aa(lp361
I3
aI6
ag11
ag11
aa(lp362
I3
aI6
ag11
ag11
aa(lp363
I3
aI6
ag11
ag11
aa(lp364
I3
aI6
ag11
ag11
aa(lp365
I3
aI6
ag11
ag11
aa(lp366
I3
aI6
ag11
ag11
aa(lp367
I3
aI6
ag11
ag11
aa(lp368
I3
aI6
ag11
ag11
aa(lp369
I3
aI6
ag11
ag11
aa(lp370
I3
aI6
ag11
ag11
aa(lp371
I3
aI6
ag11
ag11
aa(lp372
I3
aI6
ag11
ag11
aa(lp373
I3
aI6
ag11
ag11
aa(lp374
I3
aI6
ag11
ag11
aa(lp375
I3
aI6
ag11
ag11
aa(lp376
I3
aI6
ag11
ag11
aa(lp377
I3
aI6
ag11
ag11
aa(lp378
I3
aI6
ag11
ag11
aa(lp379
I3
aI6
ag11
ag11
aa(lp380
I3
aI6
ag11
ag11
aa(lp381
I3
aI6
ag11
ag11
aa(lp382
I3
aI6
ag11
ag11
aa(lp383
I3
aI6
ag11
ag11
aa(lp384
I4
aI4
ag5
ag5
aa(lp385
I4
aI4
ag5
ag5
aa(lp386
I4
aI4
ag5
ag5
aa(lp387
I4
aI4
ag5
ag5
aa(lp388
I4
aI4
ag5
ag5
aa(lp389
I4
aI4
ag5
ag5
aa(lp390
I4
aI4
ag5
ag5
aa(lp391
I4
aI4
ag5
ag5
aa(lp392
I4
aI4
ag5
ag5
aa(lp393
I4
aI4
ag5
ag5
aa(lp394
I4
aI4
ag5
ag5
aa(lp395
I4
aI4
ag5
ag5
aa(lp396
I4
aI4
ag5
ag5
aa(lp397
I4
aI4
ag5
ag5
aa(lp398
I4
aI4
ag5
ag5
aa(lp399
I4
aI4
ag5
ag5
aa(lp400
I4
aI4
ag5
ag5
aa(lp401
I4
aI4
ag5
ag11
aa(lp402
I4
aI4
ag5
ag5
aa(lp403
I4
aI4
ag5
ag5
aa(lp404
I4
aI4
ag5
ag5
aa(lp405
I4
aI4
ag5
ag5
aa(lp406
I4
aI4
ag5
ag5
aa(lp407
I4
aI4
ag5
ag5
aa(lp408
I4
aI4
ag5
ag5
aa(lp409
I4
aI4
ag5
ag5
aa(lp410
I4
aI4
ag5
ag5
aa(lp411
I4
aI4
ag5
ag5
aa(lp412
I4
aI4
ag5
ag5
aa(lp413
I4
aI4
ag5
ag5
aa(lp414
I4
aI4
ag5
ag5
aa(lp415
I4
aI4
ag5
ag5
aa(lp416
I4
aI4
ag5
ag5
aa(lp417
I4
aI4
ag5
ag5
aa(lp418
I4
aI4
ag5
ag5
aa(lp419
I4
aI4
ag5
ag5
aa(lp420
I4
aI4
ag5
ag5
aa(lp421
I4
aI4
ag5
ag5
aa(lp422
I4
aI4
ag5
ag5
aa(lp423
I4
aI4
ag5
ag5
aa(lp424
I4
aI4
ag5
ag5
aa(lp425
I4
aI4
ag5
ag5
aa(lp426
I4
aI4
ag5
ag5
aa(lp427
I4
aI4
ag5
ag5
aa(lp428
I4
aI4
ag5
ag5
aa(lp429
I4
aI4
ag5
ag5
aa(lp430
I4
aI4
ag5
ag5
aa(lp431
I4
aI4
ag5
ag5
aa(lp432
I4
aI4
ag5
ag5
aa(lp433
I4
aI4
ag5
ag5
aa(lp434
I4
aI4
ag5
ag5
aa(lp435
I4
aI4
ag5
ag5
aa(lp436
I4
aI4
ag5
ag5
aa(lp437
I4
aI4
ag5
ag5
aa(lp438
I4
aI4
ag5
ag5
aa(lp439
I4
aI4
ag5
ag5
aa(lp440
I4
aI4
ag5
ag5
aa(lp441
I4
aI4
ag5
ag5
aa(lp442
I4
aI4
ag5
ag5
aa(lp443
I4
aI4
ag5
ag5
aa(lp444
I4
aI4
ag5
ag5
aa(lp445
I4
aI4
ag5
ag5
aa(lp446
I4
aI4
ag5
ag5
aa(lp447
I4
aI4
ag5
ag5
aa(lp448
I4
aI4
ag5
ag5
aa(lp449
I4
aI4
ag5
ag5
aa(lp450
I4
aI4
ag5
ag5
aa(lp451
I4
aI4
ag5
ag5
aa(lp452
I4
aI4
ag5
ag5
aa(lp453
I4
aI4
ag5
ag5
aa(lp454
I4
aI4
ag5
ag5
aa(lp455
I4
aI4
ag5
ag5
aa(lp456
I5
aI3
ag4
ag4
aa(lp457
I5
aI3
ag4
ag4
aa(lp458
I5
aI3
ag4
ag4
aa(lp459
I5
aI3
ag4
ag4
aa(lp460
I5
aI3
ag4
ag5
aa(lp461
I5
aI3
ag4
ag5
aa(lp462
I5
aI3
ag4
ag5
aa(lp463
I5
aI3
ag4
ag11
aa(lp464
I5
aI3
ag4
ag11
aa(lp465
I5
aI3
ag4
ag4
aa(lp466
I5
aI3
ag4
ag4
aa(lp467
I5
aI3
ag4
ag4
aa(lp468
I5
aI3
ag4
ag4
aa(lp469
I5
aI3
ag4
ag4
aa(lp470
I5
aI3
ag4
ag4
aa(lp471
I5
aI3
ag4
ag4
aa(lp472
I5
aI3
ag4
ag11
aa(lp473
I5
aI3
ag4
ag11
aa(lp474
I5
aI3
ag4
ag4
aa(lp475
I5
aI3
ag4
ag4
aa(lp476
I5
aI3
ag4
ag11
aa(lp477
I5
aI3
ag4
ag11
aa(lp478
I5
aI3
ag4
ag4
aa(lp479
I5
aI3
ag4
ag4
aa(lp480
I5
aI3
ag4
ag4
aa(lp481
I5
aI3
ag4
ag4
aa(lp482
I5
aI3
ag4
ag4
aa(lp483
I5
aI3
ag4
ag4
aa(lp484
I5
aI3
ag4
ag4
aa(lp485
I5
aI3
ag4
ag4
aa(lp486
I5
aI3
ag4
ag4
aa(lp487
I5
aI3
ag4
ag4
aa(lp488
I5
aI3
ag4
ag4
aa(lp489
I5
aI3
ag4
ag4
aa(lp490
I5
aI3
ag4
ag4
aa(lp491
I5
aI3
ag4
ag4
aa(lp492
I5
aI3
ag4
ag4
aa(lp493
I5
aI3
ag4
ag4
aa(lp494
I5
aI3
ag4
ag4
aa(lp495
I5
aI3
ag4
ag4
aa(lp496
I5
aI3
ag4
ag4
aa(lp497
I5
aI3
ag4
ag4
aa(lp498
I5
aI3
ag4
ag4
aa(lp499
I5
aI3
ag4
ag4
aa(lp500
I5
aI3
ag4
ag11
aa(lp501
I5
aI3
ag4
ag4
aa(lp502
I5
aI3
ag4
ag4
aa(lp503
I5
aI3
ag4
ag4
aa(lp504
I5
aI3
ag4
ag4
aa(lp505
I5
aI3
ag4
ag4
aa(lp506
I5
aI3
ag4
ag4
aa(lp507
I5
aI3
ag4
ag4
aa(lp508
I5
aI3
ag4
ag4
aa(lp509
I5
aI3
ag4
ag4
aa(lp510
I5
aI3
ag4
ag4
aa(lp511
I5
aI3
ag4
ag4
aa(lp512
I5
aI3
ag4
ag4
aa(lp513
I5
aI3
ag4
ag4
aa(lp514
I5
aI3
ag4
ag4
aa(lp515
I5
aI3
ag4
ag4
aa(lp516
I5
aI3
ag4
ag4
aa(lp517
I5
aI3
ag4
ag4
aa(lp518
I5
aI3
ag4
ag4
aa(lp519
I5
aI3
ag4
ag4
aa(lp520
I5
aI3
ag4
ag4
aa(lp521
I5
aI3
ag4
ag4
aa(lp522
I5
aI3
ag4
ag4
aa(lp523
I5
aI3
ag4
ag4
aa(lp524
I5
aI3
ag4
ag4
aa(lp525
I5
aI3
ag4
ag4
aa(lp526
I5
aI3
ag4
ag4
aa(lp527
I5
aI3
ag4
ag4
aa(lp528
I5
aI3
ag4
ag4
aa(lp529
I5
aI3
ag4
ag4
aa(lp530
I5
aI3
ag4
ag4
aa(lp531
I5
aI3
ag4
ag4
aa(lp532
I5
aI3
ag4
ag4
aa(lp533
I5
aI3
ag4
ag4
aa(lp534
I5
aI3
ag4
ag4
aa(lp535
I5
aI3
ag4
ag4
aa(lp536
I5
aI3
ag4
ag4
aa(lp537
I6
aI5
ag4
ag5
aa(lp538
I6
aI5
ag4
ag4
aa(lp539
I6
aI5
ag4
ag5
aa(lp540
I6
aI5
ag4
ag4
aa(lp541
I6
aI5
ag4
ag11
aa(lp542
I6
aI5
ag4
ag11
aa(lp543
I6
aI5
ag4
ag4
aa(lp544
I6
aI5
ag4
ag4
aa(lp545
I6
aI5
ag4
ag4
aa(lp546
I6
aI5
ag4
ag4
aa(lp547
I6
aI5
ag4
ag11
aa(lp548
I6
aI5
ag4
ag11
aa(lp549
I6
aI5
ag4
ag11
aa(lp550
I6
aI5
ag4
ag11
aa(lp551
I6
aI5
ag4
ag4
aa(lp552
I6
aI5
ag4
ag11
aa(lp553
I6
aI5
ag4
ag11
aa(lp554
I6
aI5
ag4
ag11
aa(lp555
I6
aI5
ag4
ag4
aa(lp556
I6
aI5
ag4
ag11
aa(lp557
I6
aI5
ag4
ag11
aa(lp558
I6
aI5
ag4
ag4
aa(lp559
I6
aI5
ag4
ag11
aa(lp560
I6
aI5
ag4
ag11
aa(lp561
I6
aI5
ag4
ag11
aa(lp562
I6
aI5
ag4
ag11
aa(lp563
I6
aI5
ag4
ag11
aa(lp564
I6
aI5
ag4
ag11
aa(lp565
I6
aI5
ag4
ag11
aa(lp566
I6
aI5
ag4
ag11
aa(lp567
I6
aI5
ag4
ag11
aa(lp568
I6
aI5
ag4
ag11
aa(lp569
I6
aI5
ag4
ag11
aa(lp570
I6
aI5
ag4
ag11
aa(lp571
I6
aI5
ag4
ag11
aa(lp572
I6
aI5
ag4
ag11
aa(lp573
I6
aI5
ag4
ag11
aa(lp574
I6
aI5
ag4
ag11
aa(lp575
I6
aI5
ag4
ag11
aa(lp576
I6
aI5
ag4
ag11
aa(lp577
I6
aI5
ag4
ag11
aa(lp578
I6
aI5
ag4
ag11
aa(lp579
I6
aI5
ag4
ag11
aa(lp580
I6
aI5
ag4
ag11
aa(lp581
I6
aI5
ag4
ag11
aa(lp582
I6
aI5
ag4
ag11
aa(lp583
I6
aI5
ag4
ag11
aa(lp584
I6
aI5
ag4
ag11
aa(lp585
I6
aI5
ag4
ag11
aa(lp586
I6
aI5
ag4
ag11
aa(lp587
I6
aI5
ag4
ag11
aa(lp588
I6
aI5
ag4
ag11
aa(lp589
I6
aI5
ag4
ag4
aa(lp590
I6
aI5
ag4
ag4
aa(lp591
I6
aI5
ag4
ag4
aa(lp592
I6
aI5
ag4
ag4
aa(lp593
I6
aI5
ag4
ag4
aa(lp594
I6
aI5
ag4
ag4
aa(lp595
I6
aI5
ag4
ag4
aa(lp596
I6
aI5
ag4
ag4
aa(lp597
I6
aI5
ag4
ag4
aa(lp598
I6
aI5
ag4
ag4
aa(lp599
I6
aI5
ag4
ag4
aa(lp600
I6
aI5
ag4
ag4
aa(lp601
I6
aI5
ag4
ag4
aa(lp602
I6
aI5
ag4
ag4
aa(lp603
I6
aI5
ag4
ag4
aa(lp604
I6
aI5
ag4
ag4
aa(lp605
I6
aI5
ag4
ag4
aa(lp606
I6
aI5
ag4
ag4
aa(lp607
I6
aI5
ag4
ag4
aa(lp608
I6
aI5
ag4
ag4
aa(lp609
I6
aI5
ag4
ag4
aa(lp610
I6
aI5
ag4
ag4
aa(lp611
I6
aI5
ag4
ag4
aa(lp612
I6
aI5
ag4
ag4
aa(lp613
I6
aI5
ag4
ag4
aa(lp614
I6
aI5
ag4
ag4
aa(lp615
I6
aI5
ag4
ag4
aa(lp616
I6
aI5
ag4
ag4
aa(lp617
I6
aI5
ag4
ag4
aa(lp618
I6
aI5
ag4
ag4
aa(lp619
I6
aI5
ag4
ag4
aa(lp620
I6
aI5
ag4
ag4
aa(lp621
I6
aI5
ag4
ag4
aa(lp622
I6
aI5
ag4
ag4
aa(lp623
I6
aI5
ag4
ag4
aa(lp624
I6
aI5
ag4
ag4
aa(lp625
I6
aI5
ag4
ag4
aa(lp626
I6
aI5
ag4
ag4
aa(lp627
I6
aI5
ag4
ag4
aa(lp628
I6
aI5
ag4
ag4
aa(lp629
I6
aI5
ag4
ag4
aa(lp630
I6
aI5
ag4
ag4
aa(lp631
I6
aI5
ag4
ag4
aa(lp632
I6
aI5
ag4
ag4
aa(lp633
I6
aI5
ag4
ag4
aa(lp634
I6
aI5
ag4
ag4
aa(lp635
I6
aI5
ag4
ag4
aa(lp636
I6
aI5
ag4
ag4
aa(lp637
I6
aI5
ag4
ag4
aa(lp638
I6
aI5
ag4
ag4
aa(lp639
I6
aI5
ag4
ag4
aa(lp640
I6
aI5
ag4
ag4
aa(lp641
I6
aI5
ag4
ag4
aa(lp642
I7
aI4
ag5
ag11
aa(lp643
I7
aI4
ag5
ag11
aa(lp644
I7
aI4
ag5
ag5
aa(lp645
I7
aI4
ag5
ag5
aa(lp646
I7
aI4
ag5
ag11
aa(lp647
I7
aI4
ag5
ag11
aa(lp648
I7
aI4
ag5
ag5
aa(lp649
I7
aI4
ag5
ag5
aa(lp650
I7
aI4
ag5
ag5
aa(lp651
I7
aI4
ag5
ag11
aa(lp652
I7
aI4
ag5
ag11
aa(lp653
I7
aI4
ag5
ag11
aa(lp654
I7
aI4
ag5
ag11
aa(lp655
I7
aI4
ag5
ag11
aa(lp656
I7
aI4
ag5
ag11
aa(lp657
I7
aI4
ag5
ag11
aa(lp658
I7
aI4
ag5
ag11
aa(lp659
I7
aI4
ag5
ag11
aa(lp660
I7
aI4
ag5
ag11
aa(lp661
I7
aI4
ag5
ag11
aa(lp662
I7
aI4
ag5
ag11
aa(lp663
I7
aI4
ag5
ag11
aa(lp664
I7
aI4
ag5
ag11
aa(lp665
I7
aI4
ag5
ag11
aa(lp666
I7
aI4
ag5
ag11
aa(lp667
I7
aI4
ag5
ag11
aa(lp668
I7
aI4
ag5
ag11
aa(lp669
I7
aI4
ag5
ag11
aa(lp670
I7
aI4
ag5
ag11
aa(lp671
I7
aI4
ag5
ag11
aa(lp672
I7
aI4
ag5
ag11
aa(lp673
I7
aI4
ag5
ag11
aa(lp674
I7
aI4
ag5
ag5
aa(lp675
I7
aI4
ag5
ag5
aa(lp676
I7
aI4
ag5
ag5
aa(lp677
I7
aI4
ag5
ag5
aa(lp678
I7
aI4
ag5
ag5
aa(lp679
I7
aI4
ag5
ag5
aa(lp680
I7
aI4
ag5
ag5
aa(lp681
I7
aI4
ag5
ag5
aa(lp682
I7
aI4
ag5
ag5
aa(lp683
I7
aI4
ag5
ag5
aa(lp684
I7
aI4
ag5
ag5
aa(lp685
I7
aI4
ag5
ag5
aa(lp686
I7
aI4
ag5
ag5
aa(lp687
I7
aI4
ag5
ag5
aa(lp688
I7
aI4
ag5
ag5
aa(lp689
I7
aI4
ag5
ag5
aa(lp690
I7
aI4
ag5
ag5
aa(lp691
I7
aI4
ag5
ag5
aa(lp692
I7
aI4
ag5
ag5
aa(lp693
I7
aI4
ag5
ag5
aa(lp694
I7
aI4
ag5
ag5
aa(lp695
I7
aI4
ag5
ag5
aa(lp696
I7
aI4
ag5
ag5
aa(lp697
I7
aI4
ag5
ag5
aa(lp698
I7
aI4
ag5
ag5
aa(lp699
I7
aI4
ag5
ag5
aa(lp700
I7
aI4
ag5
ag5
aa(lp701
I7
aI4
ag5
ag5
aa(lp702
I7
aI4
ag5
ag5
aa(lp703
I7
aI4
ag5
ag5
aa(lp704
I7
aI4
ag5
ag5
aa(lp705
I7
aI4
ag5
ag5
aa(lp706
I7
aI4
ag5
ag5
aa(lp707
I7
aI4
ag5
ag5
aa(lp708
I7
aI4
ag5
ag5
aa(lp709
I7
aI4
ag5
ag5
aa(lp710
I7
aI4
ag5
ag5
aa(lp711
I7
aI4
ag5
ag5
aa(lp712
I7
aI4
ag5
ag5
aa(lp713
I7
aI4
ag5
ag5
aa(lp714
I7
aI4
ag5
ag5
aa(lp715
I7
aI4
ag5
ag5
aa(lp716
I7
aI4
ag5
ag5
aa(lp717
I7
aI4
ag5
ag5
aa(lp718
I7
aI4
ag5
ag5
aa(lp719
I7
aI4
ag5
ag5
aa(lp720
I7
aI4
ag5
ag5
aa(lp721
I7
aI4
ag5
ag5
aa(lp722
I7
aI4
ag5
ag5
aa(lp723
I7
aI4
ag5
ag5
aa(lp724
I7
aI4
ag5
ag5
aa(lp725
I7
aI4
ag5
ag5
aa(lp726
I7
aI4
ag5
ag5
aa(lp727
I7
aI4
ag5
ag5
aa(lp728
I7
aI4
ag5
ag5
aa(lp729
I7
aI4
ag5
ag5
aa(lp730
I7
aI4
ag5
ag5
aa(lp731
I7
aI4
ag5
ag5
aa(lp732
I7
aI4
ag5
ag5
aa(lp733
I7
aI4
ag5
ag5
aa(lp734
I7
aI4
ag5
ag5
aa(lp735
I7
aI4
ag5
ag5
aa(lp736
I7
aI4
ag5
ag5
aa(lp737
I7
aI4
ag5
ag5
aa(lp738
I7
aI4
ag5
ag5
aa(lp739
I7
aI4
ag5
ag5
aa(lp740
I7
aI4
ag5
ag5
aa(lp741
I7
aI4
ag5
ag5
aa(lp742
I7
aI4
ag5
ag5
aa(lp743
I7
aI4
ag5
ag5
aa(lp744
I7
aI4
ag5
ag5
aa(lp745
I7
aI4
ag5
ag5
aa(lp746
I7
aI4
ag5
ag5
aa(lp747
I7
aI4
ag5
ag5
aa(lp748
I7
aI4
ag5
ag5
aa(lp749
I7
aI4
ag5
ag5
aa(lp750
I7
aI4
ag5
ag5
aa(lp751
I7
aI4
ag5
ag5
aa(lp752
I7
aI4
ag5
ag5
aa(lp753
I7
aI4
ag5
ag5
aa(lp754
I7
aI4
ag5
ag5
aa(lp755
I7
aI4
ag5
ag5
aa(lp756
I7
aI4
ag5
ag5
aa(lp757
I7
aI4
ag5
ag5
aa(lp758
I7
aI4
ag5
ag5
aa(lp759
I7
aI4
ag5
ag5
aa(lp760
I7
aI4
ag5
ag5
aa(lp761
I7
aI4
ag5
ag5
aa(lp762
I7
aI4
ag5
ag5
aa(lp763
I7
aI4
ag5
ag5
aa(lp764
I7
aI4
ag5
ag5
aa(lp765
I8
aI2
ag4
ag5
aa(lp766
I8
aI2
ag4
ag4
aa(lp767
I8
aI2
ag4
ag4
aa(lp768
I8
aI2
ag4
ag5
aa(lp769
I8
aI2
ag4
ag5
aa(lp770
I8
aI2
ag4
ag11
aa(lp771
I8
aI2
ag4
ag4
aa(lp772
I8
aI2
ag4
ag5
aa(lp773
I8
aI2
ag4
ag4
aa(lp774
I8
aI2
ag4
ag4
aa(lp775
I8
aI2
ag4
ag4
aa(lp776
I8
aI2
ag4
ag4
aa(lp777
I8
aI2
ag4
ag4
aa(lp778
I8
aI2
ag4
ag4
aa(lp779
I8
aI2
ag4
ag4
aa(lp780
I8
aI2
ag4
ag4
aa(lp781
I8
aI2
ag4
ag4
aa(lp782
I8
aI2
ag4
ag4
aa(lp783
I8
aI2
ag4
ag4
aa(lp784
I8
aI2
ag4
ag4
aa(lp785
I8
aI2
ag4
ag4
aa(lp786
I8
aI2
ag4
ag4
aa(lp787
I8
aI2
ag4
ag4
aa(lp788
I8
aI2
ag4
ag4
aa(lp789
I8
aI2
ag4
ag4
aa(lp790
I8
aI2
ag4
ag4
aa(lp791
I8
aI2
ag4
ag4
aa(lp792
I8
aI2
ag4
ag4
aa(lp793
I8
aI2
ag4
ag4
aa(lp794
I8
aI2
ag4
ag4
aa(lp795
I8
aI2
ag4
ag4
aa(lp796
I8
aI2
ag4
ag4
aa(lp797
I8
aI2
ag4
ag4
aa(lp798
I8
aI2
ag4
ag4
aa(lp799
I8
aI2
ag4
ag4
aa(lp800
I8
aI2
ag4
ag4
aa(lp801
I8
aI2
ag4
ag4
aa(lp802
I8
aI2
ag4
ag4
aa(lp803
I8
aI2
ag4
ag4
aa(lp804
I8
aI2
ag4
ag4
aa(lp805
I8
aI2
ag4
ag4
aa(lp806
I8
aI2
ag4
ag4
aa(lp807
I8
aI2
ag4
ag4
aa(lp808
I8
aI2
ag4
ag4
aa(lp809
I8
aI2
ag4
ag4
aa(lp810
I8
aI2
ag4
ag4
aa(lp811
I8
aI2
ag4
ag4
aa(lp812
I8
aI2
ag4
ag4
aa(lp813
I8
aI2
ag4
ag4
aa(lp814
I8
aI2
ag4
ag4
aa(lp815
I8
aI2
ag4
ag4
aa(lp816
I8
aI2
ag4
ag4
aa(lp817
I8
aI2
ag4
ag4
aa(lp818
I8
aI2
ag4
ag4
aa(lp819
I8
aI2
ag4
ag4
aa(lp820
I8
aI2
ag4
ag4
aa(lp821
I8
aI2
ag4
ag4
aa(lp822
I8
aI2
ag4
ag4
aa(lp823
I8
aI2
ag4
ag4
aa(lp824
I8
aI2
ag4
ag4
aa(lp825
I8
aI2
ag4
ag4
aa(lp826
I8
aI2
ag4
ag4
aa(lp827
I8
aI2
ag4
ag4
aa(lp828
I8
aI2
ag4
ag4
aa(lp829
I8
aI2
ag4
ag4
aa(lp830
I8
aI2
ag4
ag4
aa(lp831
I8
aI2
ag4
ag4
aa(lp832
I8
aI2
ag4
ag4
aa(lp833
I8
aI2
ag4
ag4
aa(lp834
I8
aI2
ag4
ag4
aa(lp835
I8
aI2
ag4
ag4
aa(lp836
I8
aI2
ag4
ag4
aa(lp837
I8
aI2
ag4
ag4
aa(lp838
I9
aI6
ag11
ag11
aa(lp839
I9
aI6
ag11
ag5
aa(lp840
I9
aI6
ag11
ag5
aa(lp841
I9
aI6
ag11
ag5
aa(lp842
I9
aI6
ag11
ag5
aa(lp843
I9
aI6
ag11
ag5
aa(lp844
I9
aI6
ag11
ag5
aa(lp845
I9
aI6
ag11
ag5
aa(lp846
I9
aI6
ag11
ag5
aa(lp847
I9
aI6
ag11
ag4
aa(lp848
I9
aI6
ag11
ag4
aa(lp849
I9
aI6
ag11
ag4
aa(lp850
I9
aI6
ag11
ag4
aa(lp851
I9
aI6
ag11
ag4
aa(lp852
I9
aI6
ag11
ag4
aa(lp853
I9
aI6
ag11
ag4
aa(lp854
I9
aI6
ag11
ag4
aa(lp855
I9
aI6
ag11
ag11
aa(lp856
I9
aI6
ag11
ag11
aa(lp857
I9
aI6
ag11
ag11
aa(lp858
I9
aI6
ag11
ag11
aa(lp859
I9
aI6
ag11
ag11
aa(lp860
I9
aI6
ag11
ag11
aa(lp861
I9
aI6
ag11
ag11
aa(lp862
I9
aI6
ag11
ag11
aa(lp863
I9
aI6
ag11
ag11
aa(lp864
I9
aI6
ag11
ag11
aa(lp865
I9
aI6
ag11
ag11
aa(lp866
I9
aI6
ag11
ag11
aa(lp867
I9
aI6
ag11
ag11
aa(lp868
I9
aI6
ag11
ag11
aa(lp869
I9
aI6
ag11
ag11
aa(lp870
I9
aI6
ag11
ag11
aa(lp871
I9
aI6
ag11
ag11
aa(lp872
I9
aI6
ag11
ag11
aa(lp873
I9
aI6
ag11
ag11
aa(lp874
I9
aI6
ag11
ag11
aa(lp875
I9
aI6
ag11
ag11
aa(lp876
I9
aI6
ag11
ag11
aa(lp877
I9
aI6
ag11
ag11
aa(lp878
I9
aI6
ag11
ag11
aa(lp879
I9
aI6
ag11
ag11
aa(lp880
I9
aI6
ag11
ag11
aa(lp881
I9
aI6
ag11
ag11
aa(lp882
I9
aI6
ag11
ag11
aa(lp883
I9
aI6
ag11
ag11
aa(lp884
I9
aI6
ag11
ag11
aa(lp885
I9
aI6
ag11
ag11
aa(lp886
I9
aI6
ag11
ag11
aa(lp887
I9
aI6
ag11
ag11
aa(lp888
I9
aI6
ag11
ag11
aa(lp889
I9
aI6
ag11
ag11
aa(lp890
I9
aI6
ag11
ag11
aa(lp891
I9
aI6
ag11
ag11
aa(lp892
I9
aI6
ag11
ag11
aa(lp893
I9
aI6
ag11
ag11
aa(lp894
I9
aI6
ag11
ag11
aa(lp895
I9
aI6
ag11
ag11
aa(lp896
I9
aI6
ag11
ag11
aa(lp897
I9
aI6
ag11
ag11
aa(lp898
I9
aI6
ag11
ag11
aa(lp899
I9
aI6
ag11
ag11
aa(lp900
I9
aI6
ag11
ag11
aa(lp901
I9
aI6
ag11
ag11
aa(lp902
I9
aI6
ag11
ag11
aa(lp903
I9
aI6
ag11
ag11
aa(lp904
I9
aI6
ag11
ag11
aa(lp905
I9
aI6
ag11
ag11
aa(lp906
I9
aI6
ag11
ag11
aa(lp907
I9
aI6
ag11
ag11
aa(lp908
I9
aI6
ag11
ag11
aa(lp909
I9
aI6
ag11
ag11
aa(lp910
I9
aI6
ag11
ag11
aa(lp911
I9
aI6
ag11
ag11
aa(lp912
I9
aI6
ag11
ag11
aa(lp913
I9
aI6
ag11
ag11
aa(lp914
I9
aI6
ag11
ag11
aa(lp915
I9
aI6
ag11
ag11
aa(lp916
I9
aI6
ag11
ag11
aa(lp917
I9
aI6
ag11
ag11
aa(lp918
I9
aI6
ag11
ag11
aa(lp919
I9
aI6
ag11
ag11
aa(lp920
I9
aI6
ag11
ag4
aa(lp921
I9
aI6
ag11
ag4
aa(lp922
I9
aI6
ag11
ag4
aa(lp923
I9
aI6
ag11
ag4
aa(lp924
I9
aI6
ag11
ag11
aa(lp925
I9
aI6
ag11
ag11
aa(lp926
I9
aI6
ag11
ag11
aa(lp927
I9
aI6
ag11
ag11
aa(lp928
I9
aI6
ag11
ag11
aa(lp929
I9
aI6
ag11
ag5
aa(lp930
I9
aI6
ag11
ag5
aa(lp931
I9
aI6
ag11
ag5
aa(lp932
I9
aI6
ag11
ag5
aa(lp933
I9
aI6
ag11
ag5
aa(lp934
I9
aI6
ag11
ag11
aa(lp935
I9
aI6
ag11
ag11
aa(lp936
I9
aI6
ag11
ag11
aa(lp937
I9
aI6
ag11
ag11
aa(lp938
I9
aI6
ag11
ag11
aa(lp939
I9
aI6
ag11
ag11
aa(lp940
I9
aI6
ag11
ag11
aa(lp941
I9
aI6
ag11
ag11
aa(lp942
I9
aI6
ag11
ag11
aa(lp943
I9
aI6
ag11
ag11
aa(lp944
I9
aI6
ag11
ag11
aa(lp945
I9
aI6
ag11
ag11
aa(lp946
I9
aI6
ag11
ag11
aa(lp947
I9
aI6
ag11
ag11
aa(lp948
I9
aI6
ag11
ag11
aa(lp949
I9
aI6
ag11
ag11
aa(lp950
I9
aI6
ag11
ag11
aa(lp951
I9
aI6
ag11
ag11
aa(lp952
I9
aI6
ag11
ag11
aa(lp953
I9
aI6
ag11
ag11
aa(lp954
I9
aI6
ag11
ag11
aa(lp955
I9
aI6
ag11
ag11
aa(lp956
I9
aI6
ag11
ag11
aa(lp957
I9
aI6
ag11
ag11
aa(lp958
I9
aI6
ag11
ag11
aa(lp959
I9
aI6
ag11
ag11
aa(lp960
I9
aI6
ag11
ag11
aa(lp961
I9
aI6
ag11
ag11
aa(lp962
I9
aI6
ag11
ag11
aa(lp963
I9
aI6
ag11
ag11
aa(lp964
I9
aI6
ag11
ag11
aa(lp965
I9
aI6
ag11
ag11
aa(lp966
I9
aI6
ag11
ag11
aa(lp967
I9
aI6
ag11
ag11
aa(lp968
I9
aI6
ag11
ag11
aa(lp969
I9
aI6
ag11
ag5
aa(lp970
I9
aI6
ag11
ag5
aa(lp971
I9
aI6
ag11
ag5
aa(lp972
I9
aI6
ag11
ag5
aa(lp973
I9
aI6
ag11
ag11
aa(lp974
I9
aI6
ag11
ag11
aa(lp975
I9
aI6
ag11
ag11
aa(lp976
I9
aI6
ag11
ag11
aa(lp977
I9
aI6
ag11
ag11
aa(lp978
I10
aI8
ag11
ag4
aa(lp979
I10
aI8
ag11
ag4
aa(lp980
I10
aI8
ag11
ag4
aa(lp981
I10
aI8
ag11
ag4
aa(lp982
I10
aI8
ag11
ag4
aa(lp983
I10
aI8
ag11
ag4
aa(lp984
I10
aI8
ag11
ag5
aa(lp985
I10
aI8
ag11
ag5
aa(lp986
I10
aI8
ag11
ag4
aa(lp987
I10
aI8
ag11
ag4
aa(lp988
I10
aI8
ag11
ag4
aa(lp989
I10
aI8
ag11
ag4
aa(lp990
I10
aI8
ag11
ag4
aa(lp991
I10
aI8
ag11
ag4
aa(lp992
I10
aI8
ag11
ag4
aa(lp993
I10
aI8
ag11
ag11
aa(lp994
I10
aI8
ag11
ag11
aa(lp995
I10
aI8
ag11
ag11
aa(lp996
I10
aI8
ag11
ag11
aa(lp997
I10
aI8
ag11
ag11
aa(lp998
I10
aI8
ag11
ag11
aa(lp999
I10
aI8
ag11
ag11
aa(lp1000
I10
aI8
ag11
ag11
aa(lp1001
I10
aI8
ag11
ag11
aa(lp1002
I10
aI8
ag11
ag11
aa(lp1003
I10
aI8
ag11
ag11
aa(lp1004
I10
aI8
ag11
ag11
aa(lp1005
I10
aI8
ag11
ag11
aa(lp1006
I10
aI8
ag11
ag11
aa(lp1007
I10
aI8
ag11
ag4
aa(lp1008
I10
aI8
ag11
ag4
aa(lp1009
I10
aI8
ag11
ag4
aa(lp1010
I10
aI8
ag11
ag4
aa(lp1011
I10
aI8
ag11
ag4
aa(lp1012
I10
aI8
ag11
ag4
aa(lp1013
I10
aI8
ag11
ag4
aa(lp1014
I10
aI8
ag11
ag4
aa(lp1015
I10
aI8
ag11
ag11
aa(lp1016
I10
aI8
ag11
ag11
aa(lp1017
I10
aI8
ag11
ag11
aa(lp1018
I10
aI8
ag11
ag11
aa(lp1019
I10
aI8
ag11
ag11
aa(lp1020
I10
aI8
ag11
ag11
aa(lp1021
I10
aI8
ag11
ag11
aa(lp1022
I10
aI8
ag11
ag11
aa(lp1023
I10
aI8
ag11
ag11
aa(lp1024
I10
aI8
ag11
ag11
aa(lp1025
I10
aI8
ag11
ag11
aa(lp1026
I10
aI8
ag11
ag11
aa(lp1027
I10
aI8
ag11
ag11
aa(lp1028
I10
aI8
ag11
ag11
aa(lp1029
I10
aI8
ag11
ag11
aa(lp1030
I10
aI8
ag11
ag11
aa(lp1031
I10
aI8
ag11
ag11
aa(lp1032
I10
aI8
ag11
ag11
aa(lp1033
I10
aI8
ag11
ag11
aa(lp1034
I10
aI8
ag11
ag11
aa(lp1035
I10
aI8
ag11
ag11
aa(lp1036
I10
aI8
ag11
ag11
aa(lp1037
I10
aI8
ag11
ag11
aa(lp1038
I10
aI8
ag11
ag11
aa(lp1039
I10
aI8
ag11
ag11
aa(lp1040
I10
aI8
ag11
ag11
aa(lp1041
I10
aI8
ag11
ag11
aa(lp1042
I10
aI8
ag11
ag11
aa(lp1043
I10
aI8
ag11
ag11
aa(lp1044
I10
aI8
ag11
ag11
aa(lp1045
I10
aI8
ag11
ag11
aa(lp1046
I10
aI8
ag11
ag11
aa(lp1047
I10
aI8
ag11
ag11
aa(lp1048
I10
aI8
ag11
ag11
aa(lp1049
I10
aI8
ag11
ag11
aa(lp1050
I10
aI8
ag11
ag11
aa(lp1051
I10
aI8
ag11
ag11
aa(lp1052
I10
aI8
ag11
ag11
aa(lp1053
I10
aI8
ag11
ag11
aa(lp1054
I10
aI8
ag11
ag11
aa(lp1055
I10
aI8
ag11
ag11
aa(lp1056
I10
aI8
ag11
ag11
aa(lp1057
I10
aI8
ag11
ag11
aa(lp1058
I10
aI8
ag11
ag11
aa(lp1059
I10
aI8
ag11
ag11
aa(lp1060
I10
aI8
ag11
ag11
aa(lp1061
I10
aI8
ag11
ag11
aa(lp1062
I10
aI8
ag11
ag11
aa(lp1063
I10
aI8
ag11
ag11
aa(lp1064
I10
aI8
ag11
ag11
aa(lp1065
I10
aI8
ag11
ag11
aa(lp1066
I10
aI8
ag11
ag11
aa(lp1067
I10
aI8
ag11
ag11
aa(lp1068
I10
aI8
ag11
ag11
aa(lp1069
I10
aI8
ag11
ag11
aa(lp1070
I10
aI8
ag11
ag11
aa(lp1071
I10
aI8
ag11
ag11
aa(lp1072
I10
aI8
ag11
ag11
aa(lp1073
I10
aI8
ag11
ag11
aa(lp1074
I10
aI8
ag11
ag11
aa(lp1075
I10
aI8
ag11
ag11
aa(lp1076
I10
aI8
ag11
ag11
aa(lp1077
I10
aI8
ag11
ag11
aa(lp1078
I10
aI8
ag11
ag11
aa(lp1079
I10
aI8
ag11
ag11
aa(lp1080
I10
aI8
ag11
ag11
aa(lp1081
I10
aI8
ag11
ag11
aa(lp1082
I10
aI8
ag11
ag11
aa(lp1083
I10
aI8
ag11
ag11
aa(lp1084
I10
aI8
ag11
ag11
aa(lp1085
I10
aI8
ag11
ag11
aa(lp1086
I10
aI8
ag11
ag11
aa(lp1087
I10
aI8
ag11
ag11
aa(lp1088
I10
aI8
ag11
ag11
aa(lp1089
I10
aI8
ag11
ag11
aa(lp1090
I10
aI8
ag11
ag11
aa(lp1091
I10
aI8
ag11
ag11
aa(lp1092
I10
aI8
ag11
ag11
aa(lp1093
I10
aI8
ag11
ag11
aa(lp1094
I10
aI8
ag11
ag11
aa(lp1095
I10
aI8
ag11
ag11
aa(lp1096
I10
aI8
ag11
ag11
aa(lp1097
I10
aI8
ag11
ag11
aa(lp1098
I10
aI8
ag11
ag11
aa(lp1099
I10
aI8
ag11
ag11
aa(lp1100
I10
aI8
ag11
ag11
aa(lp1101
I10
aI8
ag11
ag11
aa(lp1102
I10
aI8
ag11
ag11
aa(lp1103
I10
aI8
ag11
ag11
aa(lp1104
I10
aI8
ag11
ag11
aa(lp1105
I10
aI8
ag11
ag11
aa(lp1106
I10
aI8
ag11
ag11
aa(lp1107
I10
aI8
ag11
ag11
aa(lp1108
I10
aI8
ag11
ag11
aa(lp1109
I10
aI8
ag11
ag11
aa(lp1110
I10
aI8
ag11
ag11
aa(lp1111
I10
aI8
ag11
ag11
aa(lp1112
I10
aI8
ag11
ag11
aa(lp1113
I10
aI8
ag11
ag11
aa(lp1114
I10
aI8
ag11
ag11
aa(lp1115
I10
aI8
ag11
ag11
aa(lp1116
I10
aI8
ag11
ag11
aa(lp1117
I10
aI8
ag11
ag11
aa(lp1118
I11
aI7
ag5
ag5
aa(lp1119
I11
aI7
ag5
ag5
aa(lp1120
I11
aI7
ag5
ag5
aa(lp1121
I11
aI7
ag5
ag5
aa(lp1122
I11
aI7
ag5
ag5
aa(lp1123
I11
aI7
ag5
ag5
aa(lp1124
I11
aI7
ag5
ag5
aa(lp1125
I11
aI7
ag5
ag5
aa(lp1126
I11
aI7
ag5
ag5
aa(lp1127
I11
aI7
ag5
ag5
aa(lp1128
I11
aI7
ag5
ag5
aa(lp1129
I11
aI7
ag5
ag5
aa(lp1130
I11
aI7
ag5
ag5
aa(lp1131
I11
aI7
ag5
ag5
aa(lp1132
I11
aI7
ag5
ag5
aa(lp1133
I11
aI7
ag5
ag5
aa(lp1134
I11
aI7
ag5
ag5
aa(lp1135
I11
aI7
ag5
ag5
aa(lp1136
I11
aI7
ag5
ag5
aa(lp1137
I11
aI7
ag5
ag5
aa(lp1138
I11
aI7
ag5
ag5
aa(lp1139
I11
aI7
ag5
ag5
aa(lp1140
I11
aI7
ag5
ag5
aa(lp1141
I11
aI7
ag5
ag5
aa(lp1142
I11
aI7
ag5
ag5
aa(lp1143
I11
aI7
ag5
ag5
aa(lp1144
I11
aI7
ag5
ag5
aa(lp1145
I11
aI7
ag5
ag5
aa(lp1146
I11
aI7
ag5
ag5
aa(lp1147
I11
aI7
ag5
ag5
aa(lp1148
I11
aI7
ag5
ag5
aa(lp1149
I11
aI7
ag5
ag5
aa(lp1150
I11
aI7
ag5
ag5
aa(lp1151
I11
aI7
ag5
ag5
aa(lp1152
I11
aI7
ag5
ag5
aa(lp1153
I11
aI7
ag5
ag5
aa(lp1154
I11
aI7
ag5
ag5
aa(lp1155
I11
aI7
ag5
ag5
aa(lp1156
I11
aI7
ag5
ag11
aa(lp1157
I11
aI7
ag5
ag5
aa(lp1158
I11
aI7
ag5
ag5
aa(lp1159
I11
aI7
ag5
ag5
aa(lp1160
I11
aI7
ag5
ag5
aa(lp1161
I11
aI7
ag5
ag11
aa(lp1162
I11
aI7
ag5
ag5
aa(lp1163
I11
aI7
ag5
ag5
aa(lp1164
I11
aI7
ag5
ag5
aa(lp1165
I11
aI7
ag5
ag5
aa(lp1166
I11
aI7
ag5
ag5
aa(lp1167
I11
aI7
ag5
ag5
aa(lp1168
I11
aI7
ag5
ag5
aa(lp1169
I11
aI7
ag5
ag5
aa(lp1170
I11
aI7
ag5
ag5
aa(lp1171
I11
aI7
ag5
ag5
aa(lp1172
I11
aI7
ag5
ag5
aa(lp1173
I11
aI7
ag5
ag5
aa(lp1174
I11
aI7
ag5
ag5
aa(lp1175
I11
aI7
ag5
ag5
aa(lp1176
I11
aI7
ag5
ag5
aa(lp1177
I11
aI7
ag5
ag5
aa(lp1178
I11
aI7
ag5
ag5
aa(lp1179
I11
aI7
ag5
ag5
aa(lp1180
I11
aI7
ag5
ag5
aa(lp1181
I11
aI7
ag5
ag5
aa(lp1182
I11
aI7
ag5
ag5
aa(lp1183
I11
aI7
ag5
ag5
aa(lp1184
I11
aI7
ag5
ag5
aa(lp1185
I11
aI7
ag5
ag5
aa(lp1186
I11
aI7
ag5
ag5
aa(lp1187
I11
aI7
ag5
ag5
aa(lp1188
I11
aI7
ag5
ag5
aa(lp1189
I11
aI7
ag5
ag5
aa(lp1190
I11
aI7
ag5
ag5
aa(lp1191
I11
aI7
ag5
ag5
aa(lp1192
I11
aI7
ag5
ag5
aa(lp1193
I11
aI7
ag5
ag5
aa(lp1194
I11
aI7
ag5
ag5
aa(lp1195
I11
aI7
ag5
ag5
aa(lp1196
I11
aI7
ag5
ag5
aa(lp1197
I11
aI7
ag5
ag5
aa(lp1198
I11
aI7
ag5
ag5
aa(lp1199
I11
aI7
ag5
ag5
aa(lp1200
I11
aI7
ag5
ag5
aa(lp1201
I11
aI7
ag5
ag5
aa(lp1202
I11
aI7
ag5
ag5
aa(lp1203
I11
aI7
ag5
ag5
aa(lp1204
I11
aI7
ag5
ag5
aa(lp1205
I11
aI7
ag5
ag5
aa(lp1206
I11
aI7
ag5
ag5
aa(lp1207
I11
aI7
ag5
ag5
aa(lp1208
I11
aI7
ag5
ag5
aa(lp1209
I11
aI7
ag5
ag5
aa(lp1210
I12
aI0
ag5
ag4
aa(lp1211
I12
aI0
ag5
ag4
aa(lp1212
I12
aI0
ag5
ag4
aa(lp1213
I12
aI0
ag5
ag5
aa(lp1214
I12
aI0
ag5
ag5
aa(lp1215
I12
aI0
ag5
ag4
aa(lp1216
I12
aI0
ag5
ag4
aa(lp1217
I12
aI0
ag5
ag4
aa(lp1218
I12
aI0
ag5
ag11
aa(lp1219
I12
aI0
ag5
ag11
aa(lp1220
I12
aI0
ag5
ag11
aa(lp1221
I12
aI0
ag5
ag5
aa(lp1222
I12
aI0
ag5
ag5
aa(lp1223
I12
aI0
ag5
ag11
aa(lp1224
I12
aI0
ag5
ag11
aa(lp1225
I12
aI0
ag5
ag11
aa(lp1226
I12
aI0
ag5
ag5
aa(lp1227
I12
aI0
ag5
ag5
aa(lp1228
I12
aI0
ag5
ag5
aa(lp1229
I12
aI0
ag5
ag5
aa(lp1230
I12
aI0
ag5
ag5
aa(lp1231
I12
aI0
ag5
ag5
aa(lp1232
I12
aI0
ag5
ag5
aa(lp1233
I12
aI0
ag5
ag5
aa(lp1234
I12
aI0
ag5
ag5
aa(lp1235
I12
aI0
ag5
ag5
aa(lp1236
I12
aI0
ag5
ag5
aa(lp1237
I12
aI0
ag5
ag5
aa(lp1238
I12
aI0
ag5
ag5
aa(lp1239
I12
aI0
ag5
ag5
aa(lp1240
I12
aI0
ag5
ag5
aa(lp1241
I12
aI0
ag5
ag5
aa(lp1242
I12
aI0
ag5
ag5
aa(lp1243
I12
aI0
ag5
ag5
aa(lp1244
I12
aI0
ag5
ag5
aa(lp1245
I12
aI0
ag5
ag5
aa(lp1246
I12
aI0
ag5
ag5
aa(lp1247
I12
aI0
ag5
ag5
aa(lp1248
I12
aI0
ag5
ag5
aa(lp1249
I12
aI0
ag5
ag5
aa(lp1250
I12
aI0
ag5
ag5
aa(lp1251
I12
aI0
ag5
ag5
aa(lp1252
I12
aI0
ag5
ag5
aa(lp1253
I12
aI0
ag5
ag5
aa(lp1254
I12
aI0
ag5
ag5
aa(lp1255
I12
aI0
ag5
ag5
aa(lp1256
I12
aI0
ag5
ag5
aa(lp1257
I12
aI0
ag5
ag5
aa(lp1258
I12
aI0
ag5
ag5
aa(lp1259
I12
aI0
ag5
ag5
aa(lp1260
I12
aI0
ag5
ag5
aa(lp1261
I12
aI0
ag5
ag5
aa(lp1262
I12
aI0
ag5
ag5
aa(lp1263
I12
aI0
ag5
ag5
aa(lp1264
I12
aI0
ag5
ag5
aa(lp1265
I12
aI0
ag5
ag5
aa(lp1266
I12
aI0
ag5
ag5
aa(lp1267
I12
aI0
ag5
ag5
aa(lp1268
I12
aI0
ag5
ag5
aa(lp1269
I12
aI0
ag5
ag5
aa(lp1270
I12
aI0
ag5
ag5
aa(lp1271
I12
aI0
ag5
ag5
aa(lp1272
I12
aI0
ag5
ag5
aa(lp1273
I12
aI0
ag5
ag5
aa(lp1274
I12
aI0
ag5
ag5
aa(lp1275
I12
aI0
ag5
ag5
aa(lp1276
I12
aI0
ag5
ag5
aa(lp1277
I12
aI0
ag5
ag5
aa(lp1278
I12
aI0
ag5
ag5
aa(lp1279
I12
aI0
ag5
ag5
aa(lp1280
I12
aI0
ag5
ag5
aa(lp1281
I12
aI0
ag5
ag5
aa(lp1282
I12
aI0
ag5
ag5
aa(lp1283
I12
aI0
ag5
ag5
aa(lp1284
I12
aI0
ag5
ag5
aa(lp1285
I12
aI0
ag5
ag5
aa(lp1286
I12
aI0
ag5
ag5
aa(lp1287
I12
aI0
ag5
ag5
aa(lp1288
I12
aI0
ag5
ag5
aa(lp1289
I12
aI0
ag5
ag5
aa(lp1290
I12
aI0
ag5
ag5
aa(lp1291
I12
aI0
ag5
ag5
aa(lp1292
I12
aI0
ag5
ag5
aa(lp1293
I12
aI0
ag5
ag5
aa(lp1294
I12
aI0
ag5
ag5
aa(lp1295
I12
aI0
ag5
ag5
aa(lp1296
I12
aI0
ag5
ag5
aa(lp1297
I12
aI0
ag5
ag5
aa(lp1298
I12
aI0
ag5
ag5
aa(lp1299
I12
aI0
ag5
ag5
aa(lp1300
I12
aI0
ag5
ag5
aa(lp1301
I12
aI0
ag5
ag5
aa(lp1302
I12
aI0
ag5
ag5
aa(lp1303
I12
aI0
ag5
ag5
aa(lp1304
I12
aI0
ag5
ag5
aa(lp1305
I12
aI0
ag5
ag5
aa(lp1306
I12
aI0
ag5
ag5
aa(lp1307
I12
aI0
ag5
ag5
aa(lp1308
I12
aI0
ag5
ag5
aa(lp1309
I12
aI0
ag5
ag5
aa(lp1310
I12
aI0
ag5
ag5
aa(lp1311
I12
aI0
ag5
ag5
aa(lp1312
I12
aI0
ag5
ag5
aa(lp1313
I12
aI0
ag5
ag5
aa(lp1314
I12
aI0
ag5
ag5
aa(lp1315
I13
aI8
ag11
ag5
aa(lp1316
I13
aI8
ag11
ag5
aa(lp1317
I13
aI8
ag11
ag5
aa(lp1318
I13
aI8
ag11
ag5
aa(lp1319
I13
aI8
ag11
ag5
aa(lp1320
I13
aI8
ag11
ag5
aa(lp1321
I13
aI8
ag11
ag5
aa(lp1322
I13
aI8
ag11
ag11
aa(lp1323
I13
aI8
ag11
ag4
aa(lp1324
I13
aI8
ag11
ag4
aa(lp1325
I13
aI8
ag11
ag4
aa(lp1326
I13
aI8
ag11
ag4
aa(lp1327
I13
aI8
ag11
ag4
aa(lp1328
I13
aI8
ag11
ag4
aa(lp1329
I13
aI8
ag11
ag4
aa(lp1330
I13
aI8
ag11
ag4
aa(lp1331
I13
aI8
ag11
ag4
aa(lp1332
I13
aI8
ag11
ag11
aa(lp1333
I13
aI8
ag11
ag11
aa(lp1334
I13
aI8
ag11
ag11
aa(lp1335
I13
aI8
ag11
ag11
aa(lp1336
I13
aI8
ag11
ag11
aa(lp1337
I13
aI8
ag11
ag11
aa(lp1338
I13
aI8
ag11
ag11
aa(lp1339
I13
aI8
ag11
ag11
aa(lp1340
I13
aI8
ag11
ag11
aa(lp1341
I13
aI8
ag11
ag11
aa(lp1342
I13
aI8
ag11
ag11
aa(lp1343
I13
aI8
ag11
ag11
aa(lp1344
I13
aI8
ag11
ag11
aa(lp1345
I13
aI8
ag11
ag11
aa(lp1346
I13
aI8
ag11
ag11
aa(lp1347
I13
aI8
ag11
ag11
aa(lp1348
I13
aI8
ag11
ag11
aa(lp1349
I13
aI8
ag11
ag11
aa(lp1350
I13
aI8
ag11
ag11
aa(lp1351
I13
aI8
ag11
ag11
aa(lp1352
I13
aI8
ag11
ag11
aa(lp1353
I13
aI8
ag11
ag11
aa(lp1354
I13
aI8
ag11
ag11
aa(lp1355
I13
aI8
ag11
ag11
aa(lp1356
I13
aI8
ag11
ag11
aa(lp1357
I13
aI8
ag11
ag11
aa(lp1358
I13
aI8
ag11
ag11
aa(lp1359
I13
aI8
ag11
ag11
aa(lp1360
I13
aI8
ag11
ag11
aa(lp1361
I13
aI8
ag11
ag11
aa(lp1362
I13
aI8
ag11
ag11
aa(lp1363
I13
aI8
ag11
ag11
aa(lp1364
I13
aI8
ag11
ag11
aa(lp1365
I13
aI8
ag11
ag11
aa(lp1366
I13
aI8
ag11
ag11
aa(lp1367
I13
aI8
ag11
ag11
aa(lp1368
I13
aI8
ag11
ag11
aa(lp1369
I13
aI8
ag11
ag11
aa(lp1370
I13
aI8
ag11
ag11
aa(lp1371
I13
aI8
ag11
ag11
aa(lp1372
I13
aI8
ag11
ag11
aa(lp1373
I13
aI8
ag11
ag11
aa(lp1374
I13
aI8
ag11
ag11
aa(lp1375
I13
aI8
ag11
ag11
aa(lp1376
I13
aI8
ag11
ag11
aa(lp1377
I13
aI8
ag11
ag11
aa(lp1378
I13
aI8
ag11
ag11
aa(lp1379
I13
aI8
ag11
ag11
aa(lp1380
I13
aI8
ag11
ag11
aa(lp1381
I13
aI8
ag11
ag11
aa(lp1382
I13
aI8
ag11
ag11
aa(lp1383
I13
aI8
ag11
ag11
aa(lp1384
I13
aI8
ag11
ag11
aa(lp1385
I13
aI8
ag11
ag11
aa(lp1386
I13
aI8
ag11
ag11
aa(lp1387
I13
aI8
ag11
ag11
aa(lp1388
I13
aI8
ag11
ag11
aa(lp1389
I13
aI8
ag11
ag11
aa(lp1390
I13
aI8
ag11
ag11
aa(lp1391
I13
aI8
ag11
ag11
aa(lp1392
I13
aI8
ag11
ag11
aa(lp1393
I13
aI8
ag11
ag11
aa(lp1394
I13
aI8
ag11
ag11
aa(lp1395
I13
aI8
ag11
ag11
aa(lp1396
I13
aI8
ag11
ag11
aa(lp1397
I13
aI8
ag11
ag11
aa(lp1398
I13
aI8
ag11
ag11
aa(lp1399
I13
aI8
ag11
ag11
aa(lp1400
I13
aI8
ag11
ag11
aa(lp1401
I13
aI8
ag11
ag11
aa(lp1402
I13
aI8
ag11
ag11
aa(lp1403
I13
aI8
ag11
ag11
aa(lp1404
I13
aI8
ag11
ag11
aa(lp1405
I13
aI8
ag11
ag11
aa(lp1406
I13
aI8
ag11
ag11
aa(lp1407
I13
aI8
ag11
ag11
aa(lp1408
I13
aI8
ag11
ag11
aa(lp1409
I13
aI8
ag11
ag11
aa(lp1410
I13
aI8
ag11
ag11
aa(lp1411
I13
aI8
ag11
ag11
aa(lp1412
I13
aI8
ag11
ag11
aa(lp1413
I13
aI8
ag11
ag11
aa(lp1414
I13
aI8
ag11
ag11
aa(lp1415
I13
aI8
ag11
ag11
aa(lp1416
I13
aI8
ag11
ag11
aa(lp1417
I13
aI8
ag11
ag11
aa(lp1418
I13
aI8
ag11
ag11
aa(lp1419
I13
aI8
ag11
ag11
aa(lp1420
I13
aI8
ag11
ag11
aa(lp1421
I13
aI8
ag11
ag11
aa(lp1422
I13
aI8
ag11
ag11
aa(lp1423
I13
aI8
ag11
ag11
aa(lp1424
I13
aI8
ag11
ag11
aa(lp1425
I13
aI8
ag11
ag11
aa(lp1426
I13
aI8
ag11
ag11
aa(lp1427
I13
aI8
ag11
ag11
aa(lp1428
I13
aI8
ag11
ag11
aa(lp1429
I13
aI8
ag11
ag11
aa(lp1430
I13
aI8
ag11
ag11
aa(lp1431
I13
aI8
ag11
ag11
aa(lp1432
I13
aI8
ag11
ag11
aa(lp1433
I13
aI8
ag11
ag11
aa(lp1434
I13
aI8
ag11
ag11
aa(lp1435
I13
aI8
ag11
ag11
aa(lp1436
I13
aI8
ag11
ag11
aa(lp1437
I13
aI8
ag11
ag11
aa(lp1438
I13
aI8
ag11
ag11
aa(lp1439
I13
aI8
ag11
ag11
aa(lp1440
I13
aI8
ag11
ag11
aa(lp1441
I13
aI8
ag11
ag11
aa(lp1442
I13
aI8
ag11
ag11
aa(lp1443
I13
aI8
ag11
ag11
aa(lp1444
I13
aI8
ag11
ag11
aa(lp1445
I13
aI8
ag11
ag11
aa(lp1446
I13
aI8
ag11
ag11
aa(lp1447
I13
aI8
ag11
ag11
aa(lp1448
I13
aI8
ag11
ag11
aa(lp1449
I13
aI8
ag11
ag11
aa(lp1450
I13
aI8
ag11
ag11
aa(lp1451
I13
aI8
ag11
ag11
aa(lp1452
I13
aI8
ag11
ag11
aa(lp1453
I13
aI8
ag11
ag11
aa(lp1454
I13
aI8
ag11
ag11
aa(lp1455
I14
aI1
ag11
ag5
aa(lp1456
I14
aI1
ag11
ag5
aa(lp1457
I14
aI1
ag11
ag5
aa(lp1458
I14
aI1
ag11
ag5
aa(lp1459
I14
aI1
ag11
ag5
aa(lp1460
I14
aI1
ag11
ag5
aa(lp1461
I14
aI1
ag11
ag5
aa(lp1462
I14
aI1
ag11
ag5
aa(lp1463
I14
aI1
ag11
ag5
aa(lp1464
I14
aI1
ag11
ag5
aa(lp1465
I14
aI1
ag11
ag5
aa(lp1466
I14
aI1
ag11
ag5
aa(lp1467
I14
aI1
ag11
ag11
aa(lp1468
I14
aI1
ag11
ag11
aa(lp1469
I14
aI1
ag11
ag11
aa(lp1470
I14
aI1
ag11
ag11
aa(lp1471
I14
aI1
ag11
ag11
aa(lp1472
I14
aI1
ag11
ag11
aa(lp1473
I14
aI1
ag11
ag11
aa(lp1474
I14
aI1
ag11
ag5
aa(lp1475
I14
aI1
ag11
ag11
aa(lp1476
I14
aI1
ag11
ag11
aa(lp1477
I14
aI1
ag11
ag11
aa(lp1478
I14
aI1
ag11
ag11
aa(lp1479
I14
aI1
ag11
ag11
aa(lp1480
I14
aI1
ag11
ag11
aa(lp1481
I14
aI1
ag11
ag11
aa(lp1482
I14
aI1
ag11
ag11
aa(lp1483
I14
aI1
ag11
ag5
aa(lp1484
I14
aI1
ag11
ag5
aa(lp1485
I14
aI1
ag11
ag5
aa(lp1486
I14
aI1
ag11
ag5
aa(lp1487
I14
aI1
ag11
ag5
aa(lp1488
I14
aI1
ag11
ag5
aa(lp1489
I14
aI1
ag11
ag5
aa(lp1490
I14
aI1
ag11
ag11
aa(lp1491
I14
aI1
ag11
ag11
aa(lp1492
I14
aI1
ag11
ag11
aa(lp1493
I14
aI1
ag11
ag11
aa(lp1494
I14
aI1
ag11
ag11
aa(lp1495
I14
aI1
ag11
ag11
aa(lp1496
I14
aI1
ag11
ag11
aa(lp1497
I14
aI1
ag11
ag11
aa(lp1498
I14
aI1
ag11
ag11
aa(lp1499
I14
aI1
ag11
ag11
aa(lp1500
I14
aI1
ag11
ag11
aa(lp1501
I14
aI1
ag11
ag5
aa(lp1502
I14
aI1
ag11
ag5
aa(lp1503
I14
aI1
ag11
ag5
aa(lp1504
I14
aI1
ag11
ag5
aa(lp1505
I14
aI1
ag11
ag5
aa(lp1506
I14
aI1
ag11
ag5
aa(lp1507
I14
aI1
ag11
ag5
aa(lp1508
I14
aI1
ag11
ag5
aa(lp1509
I14
aI1
ag11
ag5
aa(lp1510
I14
aI1
ag11
ag5
aa(lp1511
I14
aI1
ag11
ag5
aa(lp1512
I14
aI1
ag11
ag5
aa(lp1513
I14
aI1
ag11
ag5
aa(lp1514
I14
aI1
ag11
ag5
aa(lp1515
I14
aI1
ag11
ag5
aa(lp1516
I14
aI1
ag11
ag5
aa(lp1517
I14
aI1
ag11
ag5
aa(lp1518
I14
aI1
ag11
ag5
aa(lp1519
I14
aI1
ag11
ag5
aa(lp1520
I14
aI1
ag11
ag5
aa(lp1521
I14
aI1
ag11
ag5
aa(lp1522
I14
aI1
ag11
ag5
aa(lp1523
I14
aI1
ag11
ag5
aa(lp1524
I14
aI1
ag11
ag5
aa(lp1525
I14
aI1
ag11
ag5
aa(lp1526
I14
aI1
ag11
ag11
aa(lp1527
I14
aI1
ag11
ag11
aa(lp1528
I14
aI1
ag11
ag11
aa(lp1529
I14
aI1
ag11
ag11
aa(lp1530
I14
aI1
ag11
ag11
aa(lp1531
I14
aI1
ag11
ag11
aa(lp1532
I14
aI1
ag11
ag11
aa(lp1533
I14
aI1
ag11
ag11
aa(lp1534
I14
aI1
ag11
ag11
aa(lp1535
I14
aI1
ag11
ag11
aa(lp1536
I14
aI1
ag11
ag11
aa(lp1537
I14
aI1
ag11
ag11
aa(lp1538
I14
aI1
ag11
ag11
aa(lp1539
I14
aI1
ag11
ag11
aa(lp1540
I14
aI1
ag11
ag11
aa(lp1541
I14
aI1
ag11
ag11
aa(lp1542
I14
aI1
ag11
ag11
aa(lp1543
I14
aI1
ag11
ag11
aa(lp1544
I14
aI1
ag11
ag11
aa(lp1545
I14
aI1
ag11
ag5
aa(lp1546
I14
aI1
ag11
ag5
aa(lp1547
I14
aI1
ag11
ag5
aa(lp1548
I14
aI1
ag11
ag5
aa(lp1549
I14
aI1
ag11
ag5
aa(lp1550
I14
aI1
ag11
ag5
aa(lp1551
I14
aI1
ag11
ag5
aa(lp1552
I14
aI1
ag11
ag5
aa(lp1553
I14
aI1
ag11
ag5
aa(lp1554
I14
aI1
ag11
ag5
aa(lp1555
I14
aI1
ag11
ag5
aa(lp1556
I14
aI1
ag11
ag5
aa(lp1557
I14
aI1
ag11
ag5
aa(lp1558
I14
aI1
ag11
ag5
aa(lp1559
I14
aI1
ag11
ag5
aa(lp1560
I14
aI1
ag11
ag5
aa(lp1561
I14
aI1
ag11
ag5
aa(lp1562
I14
aI1
ag11
ag5
aa(lp1563
I14
aI1
ag11
ag5
aa(lp1564
I14
aI1
ag11
ag5
aa(lp1565
I14
aI1
ag11
ag5
aa(lp1566
I14
aI1
ag11
ag5
aa(lp1567
I14
aI1
ag11
ag5
aa(lp1568
I14
aI1
ag11
ag5
aa(lp1569
I14
aI1
ag11
ag5
aa(lp1570
I14
aI1
ag11
ag5
aa(lp1571
I14
aI1
ag11
ag5
aa(lp1572
I14
aI1
ag11
ag5
aa(lp1573
I14
aI1
ag11
ag5
aa(lp1574
I14
aI1
ag11
ag11
aa(lp1575
I14
aI1
ag11
ag11
aa(lp1576
I14
aI1
ag11
ag11
aa(lp1577
I14
aI1
ag11
ag11
aa(lp1578
I14
aI1
ag11
ag11
aa(lp1579
I14
aI1
ag11
ag11
aa(lp1580
I14
aI1
ag11
ag11
aa(lp1581
I14
aI1
ag11
ag5
aa(lp1582
I14
aI1
ag11
ag5
aa(lp1583
I14
aI1
ag11
ag5
aa(lp1584
I14
aI1
ag11
ag5
aa(lp1585
I14
aI1
ag11
ag11
aa(lp1586
I14
aI1
ag11
ag11
aa(lp1587
I14
aI1
ag11
ag11
aa(lp1588
I14
aI1
ag11
ag5
aa(lp1589
I14
aI1
ag11
ag11
aa(lp1590
I14
aI1
ag11
ag11
aa(lp1591
I14
aI1
ag11
ag11
aa(lp1592
I14
aI1
ag11
ag11
aa(lp1593
I14
aI1
ag11
ag11
aa(lp1594
I14
aI1
ag11
ag11
aa(lp1595
I15
aI1
ag11
ag5
aa(lp1596
I15
aI1
ag11
ag5
aa(lp1597
I15
aI1
ag11
ag5
aa(lp1598
I15
aI1
ag11
ag5
aa(lp1599
I15
aI1
ag11
ag5
aa(lp1600
I15
aI1
ag11
ag5
aa(lp1601
I15
aI1
ag11
ag5
aa(lp1602
I15
aI1
ag11
ag5
aa(lp1603
I15
aI1
ag11
ag5
aa(lp1604
I15
aI1
ag11
ag5
aa(lp1605
I15
aI1
ag11
ag5
aa(lp1606
I15
aI1
ag11
ag4
aa(lp1607
I15
aI1
ag11
ag4
aa(lp1608
I15
aI1
ag11
ag11
aa(lp1609
I15
aI1
ag11
ag11
aa(lp1610
I15
aI1
ag11
ag11
aa(lp1611
I15
aI1
ag11
ag11
aa(lp1612
I15
aI1
ag11
ag11
aa(lp1613
I15
aI1
ag11
ag11
aa(lp1614
I15
aI1
ag11
ag11
aa(lp1615
I15
aI1
ag11
ag11
aa(lp1616
I15
aI1
ag11
ag11
aa(lp1617
I15
aI1
ag11
ag11
aa(lp1618
I15
aI1
ag11
ag11
aa(lp1619
I15
aI1
ag11
ag11
aa(lp1620
I15
aI1
ag11
ag5
aa(lp1621
I15
aI1
ag11
ag11
aa(lp1622
I15
aI1
ag11
ag11
aa(lp1623
I15
aI1
ag11
ag11
aa(lp1624
I15
aI1
ag11
ag11
aa(lp1625
I15
aI1
ag11
ag11
aa(lp1626
I15
aI1
ag11
ag11
aa(lp1627
I15
aI1
ag11
ag11
aa(lp1628
I15
aI1
ag11
ag11
aa(lp1629
I15
aI1
ag11
ag11
aa(lp1630
I15
aI1
ag11
ag11
aa(lp1631
I15
aI1
ag11
ag11
aa(lp1632
I15
aI1
ag11
ag11
aa(lp1633
I15
aI1
ag11
ag5
aa(lp1634
I15
aI1
ag11
ag5
aa(lp1635
I15
aI1
ag11
ag5
aa(lp1636
I15
aI1
ag11
ag5
aa(lp1637
I15
aI1
ag11
ag5
aa(lp1638
I15
aI1
ag11
ag5
aa(lp1639
I15
aI1
ag11
ag5
aa(lp1640
I15
aI1
ag11
ag5
aa(lp1641
I15
aI1
ag11
ag5
aa(lp1642
I15
aI1
ag11
ag5
aa(lp1643
I15
aI1
ag11
ag11
aa(lp1644
I15
aI1
ag11
ag11
aa(lp1645
I15
aI1
ag11
ag11
aa(lp1646
I15
aI1
ag11
ag11
aa(lp1647
I15
aI1
ag11
ag11
aa(lp1648
I15
aI1
ag11
ag11
aa(lp1649
I15
aI1
ag11
ag11
aa(lp1650
I15
aI1
ag11
ag11
aa(lp1651
I15
aI1
ag11
ag11
aa(lp1652
I15
aI1
ag11
ag11
aa(lp1653
I15
aI1
ag11
ag11
aa(lp1654
I15
aI1
ag11
ag11
aa(lp1655
I15
aI1
ag11
ag5
aa(lp1656
I15
aI1
ag11
ag11
aa(lp1657
I15
aI1
ag11
ag11
aa(lp1658
I15
aI1
ag11
ag11
aa(lp1659
I15
aI1
ag11
ag11
aa(lp1660
I15
aI1
ag11
ag11
aa(lp1661
I15
aI1
ag11
ag11
aa(lp1662
I15
aI1
ag11
ag11
aa(lp1663
I15
aI1
ag11
ag11
aa(lp1664
I15
aI1
ag11
ag11
aa(lp1665
I15
aI1
ag11
ag11
aa(lp1666
I15
aI1
ag11
ag11
aa(lp1667
I15
aI1
ag11
ag11
aa(lp1668
I15
aI1
ag11
ag11
aa(lp1669
I15
aI1
ag11
ag11
aa(lp1670
I15
aI1
ag11
ag11
aa(lp1671
I15
aI1
ag11
ag11
aa(lp1672
I15
aI1
ag11
ag11
aa(lp1673
I15
aI1
ag11
ag11
aa(lp1674
I15
aI1
ag11
ag11
aa(lp1675
I15
aI1
ag11
ag11
aa(lp1676
I15
aI1
ag11
ag11
aa(lp1677
I15
aI1
ag11
ag11
aa(lp1678
I15
aI1
ag11
ag11
aa(lp1679
I15
aI1
ag11
ag11
aa(lp1680
I15
aI1
ag11
ag11
aa(lp1681
I15
aI1
ag11
ag11
aa(lp1682
I15
aI1
ag11
ag5
aa(lp1683
I15
aI1
ag11
ag5
aa(lp1684
I15
aI1
ag11
ag5
aa(lp1685
I15
aI1
ag11
ag5
aa(lp1686
I15
aI1
ag11
ag5
aa(lp1687
I15
aI1
ag11
ag5
aa(lp1688
I15
aI1
ag11
ag5
aa(lp1689
I15
aI1
ag11
ag5
aa(lp1690
I15
aI1
ag11
ag5
aa(lp1691
I15
aI1
ag11
ag5
aa(lp1692
I15
aI1
ag11
ag5
aa(lp1693
I15
aI1
ag11
ag5
aa(lp1694
I15
aI1
ag11
ag5
aa(lp1695
I15
aI1
ag11
ag5
aa(lp1696
I15
aI1
ag11
ag5
aa(lp1697
I15
aI1
ag11
ag5
aa(lp1698
I15
aI1
ag11
ag5
aa(lp1699
I15
aI1
ag11
ag5
aa(lp1700
I15
aI1
ag11
ag5
aa(lp1701
I15
aI1
ag11
ag5
aa(lp1702
I15
aI1
ag11
ag5
aa(lp1703
I15
aI1
ag11
ag5
aa(lp1704
I15
aI1
ag11
ag5
aa(lp1705
I15
aI1
ag11
ag5
aa(lp1706
I15
aI1
ag11
ag5
aa(lp1707
I15
aI1
ag11
ag5
aa(lp1708
I15
aI1
ag11
ag5
aa(lp1709
I15
aI1
ag11
ag5
aa(lp1710
I15
aI1
ag11
ag5
aa(lp1711
I15
aI1
ag11
ag5
aa(lp1712
I15
aI1
ag11
ag5
aa(lp1713
I15
aI1
ag11
ag5
aa(lp1714
I15
aI1
ag11
ag5
aa(lp1715
I15
aI1
ag11
ag5
aa(lp1716
I15
aI1
ag11
ag5
aa(lp1717
I15
aI1
ag11
ag5
aa(lp1718
I15
aI1
ag11
ag5
aa(lp1719
I15
aI1
ag11
ag5
aa(lp1720
I15
aI1
ag11
ag5
aa(lp1721
I15
aI1
ag11
ag5
aa(lp1722
I15
aI1
ag11
ag5
aa(lp1723
I15
aI1
ag11
ag5
aa(lp1724
I15
aI1
ag11
ag5
aa(lp1725
I15
aI1
ag11
ag5
aa(lp1726
I15
aI1
ag11
ag5
aa(lp1727
I15
aI1
ag11
ag5
aa(lp1728
I15
aI1
ag11
ag5
aa(lp1729
I15
aI1
ag11
ag5
aa(lp1730
I15
aI1
ag11
ag5
aa(lp1731
I15
aI1
ag11
ag5
aa(lp1732
I15
aI1
ag11
ag5
aa(lp1733
I15
aI1
ag11
ag5
aa(lp1734
I15
aI1
ag11
ag5
aa(lp1735
I16
aI0
ag5
ag5
aa(lp1736
I16
aI0
ag5
ag5
aa(lp1737
I16
aI0
ag5
ag5
aa(lp1738
I16
aI0
ag5
ag5
aa(lp1739
I16
aI0
ag5
ag11
aa(lp1740
I16
aI0
ag5
ag11
aa(lp1741
I16
aI0
ag5
ag11
aa(lp1742
I16
aI0
ag5
ag11
aa(lp1743
I16
aI0
ag5
ag11
aa(lp1744
I16
aI0
ag5
ag11
aa(lp1745
I16
aI0
ag5
ag11
aa(lp1746
I16
aI0
ag5
ag5
aa(lp1747
I16
aI0
ag5
ag11
aa(lp1748
I16
aI0
ag5
ag11
aa(lp1749
I16
aI0
ag5
ag11
aa(lp1750
I16
aI0
ag5
ag11
aa(lp1751
I16
aI0
ag5
ag11
aa(lp1752
I16
aI0
ag5
ag11
aa(lp1753
I16
aI0
ag5
ag11
aa(lp1754
I16
aI0
ag5
ag11
aa(lp1755
I16
aI0
ag5
ag11
aa(lp1756
I16
aI0
ag5
ag11
aa(lp1757
I16
aI0
ag5
ag11
aa(lp1758
I16
aI0
ag5
ag11
aa(lp1759
I16
aI0
ag5
ag11
aa(lp1760
I16
aI0
ag5
ag11
aa(lp1761
I16
aI0
ag5
ag11
aa(lp1762
I16
aI0
ag5
ag11
aa(lp1763
I16
aI0
ag5
ag11
aa(lp1764
I16
aI0
ag5
ag11
aa(lp1765
I16
aI0
ag5
ag11
aa(lp1766
I16
aI0
ag5
ag11
aa(lp1767
I16
aI0
ag5
ag11
aa(lp1768
I16
aI0
ag5
ag11
aa(lp1769
I16
aI0
ag5
ag5
aa(lp1770
I16
aI0
ag5
ag5
aa(lp1771
I16
aI0
ag5
ag5
aa(lp1772
I16
aI0
ag5
ag5
aa(lp1773
I16
aI0
ag5
ag5
aa(lp1774
I16
aI0
ag5
ag5
aa(lp1775
I16
aI0
ag5
ag5
aa(lp1776
I16
aI0
ag5
ag5
aa(lp1777
I16
aI0
ag5
ag5
aa(lp1778
I16
aI0
ag5
ag11
aa(lp1779
I16
aI0
ag5
ag11
aa(lp1780
I16
aI0
ag5
ag11
aa(lp1781
I16
aI0
ag5
ag11
aa(lp1782
I16
aI0
ag5
ag11
aa(lp1783
I16
aI0
ag5
ag11
aa(lp1784
I16
aI0
ag5
ag11
aa(lp1785
I16
aI0
ag5
ag11
aa(lp1786
I16
aI0
ag5
ag5
aa(lp1787
I16
aI0
ag5
ag5
aa(lp1788
I16
aI0
ag5
ag5
aa(lp1789
I16
aI0
ag5
ag5
aa(lp1790
I16
aI0
ag5
ag5
aa(lp1791
I16
aI0
ag5
ag5
aa(lp1792
I16
aI0
ag5
ag5
aa(lp1793
I16
aI0
ag5
ag5
aa(lp1794
I16
aI0
ag5
ag5
aa(lp1795
I16
aI0
ag5
ag5
aa(lp1796
I16
aI0
ag5
ag5
aa(lp1797
I16
aI0
ag5
ag5
aa(lp1798
I16
aI0
ag5
ag5
aa(lp1799
I16
aI0
ag5
ag5
aa(lp1800
I16
aI0
ag5
ag5
aa(lp1801
I16
aI0
ag5
ag5
aa(lp1802
I16
aI0
ag5
ag5
aa(lp1803
I16
aI0
ag5
ag5
aa(lp1804
I16
aI0
ag5
ag5
aa(lp1805
I16
aI0
ag5
ag5
aa(lp1806
I16
aI0
ag5
ag5
aa(lp1807
I16
aI0
ag5
ag5
aa(lp1808
I16
aI0
ag5
ag5
aa(lp1809
I16
aI0
ag5
ag5
aa(lp1810
I16
aI0
ag5
ag5
aa(lp1811
I16
aI0
ag5
ag5
aa(lp1812
I16
aI0
ag5
ag5
aa(lp1813
I16
aI0
ag5
ag5
aa(lp1814
I16
aI0
ag5
ag5
aa(lp1815
I16
aI0
ag5
ag5
aa(lp1816
I16
aI0
ag5
ag5
aa(lp1817
I16
aI0
ag5
ag5
aa(lp1818
I16
aI0
ag5
ag5
aa(lp1819
I16
aI0
ag5
ag5
aa(lp1820
I16
aI0
ag5
ag5
aa(lp1821
I16
aI0
ag5
ag5
aa(lp1822
I16
aI0
ag5
ag5
aa(lp1823
I16
aI0
ag5
ag5
aa(lp1824
I16
aI0
ag5
ag5
aa(lp1825
I16
aI0
ag5
ag5
aa(lp1826
I16
aI0
ag5
ag5
aa(lp1827
I16
aI0
ag5
ag5
aa(lp1828
I16
aI0
ag5
ag5
aa(lp1829
I16
aI0
ag5
ag5
aa(lp1830
I16
aI0
ag5
ag5
aa(lp1831
I16
aI0
ag5
ag5
aa(lp1832
I16
aI0
ag5
ag5
aa(lp1833
I16
aI0
ag5
ag5
aa(lp1834
I16
aI0
ag5
ag5
aa(lp1835
I16
aI0
ag5
ag5
aa(lp1836
I16
aI0
ag5
ag5
aa(lp1837
I16
aI0
ag5
ag5
aa(lp1838
I16
aI0
ag5
ag5
aa(lp1839
I16
aI0
ag5
ag5
aa(lp1840
I16
aI0
ag5
ag5
aa(lp1841
I16
aI0
ag5
ag5
aa(lp1842
I16
aI0
ag5
ag5
aa(lp1843
I16
aI0
ag5
ag5
aa(lp1844
I16
aI0
ag5
ag5
aa(lp1845
I16
aI0
ag5
ag5
aa(lp1846
I16
aI0
ag5
ag5
aa(lp1847
I16
aI0
ag5
ag5
aa(lp1848
I16
aI0
ag5
ag5
aa(lp1849
I16
aI0
ag5
ag5
aa(lp1850
I16
aI0
ag5
ag5
aa(lp1851
I16
aI0
ag5
ag5
aa(lp1852
I16
aI0
ag5
ag5
aa(lp1853
I16
aI0
ag5
ag5
aa(lp1854
I16
aI0
ag5
ag5
aa(lp1855
I16
aI0
ag5
ag5
aa(lp1856
I16
aI0
ag5
ag5
aa(lp1857
I16
aI0
ag5
ag5
aa(lp1858
I16
aI0
ag5
ag5
aa(lp1859
I16
aI0
ag5
ag5
aa(lp1860
I16
aI0
ag5
ag5
aa(lp1861
I17
aI7
ag5
ag5
aa(lp1862
I17
aI7
ag5
ag4
aa(lp1863
I17
aI7
ag5
ag4
aa(lp1864
I17
aI7
ag5
ag4
aa(lp1865
I17
aI7
ag5
ag4
aa(lp1866
I17
aI7
ag5
ag4
aa(lp1867
I17
aI7
ag5
ag4
aa(lp1868
I17
aI7
ag5
ag4
aa(lp1869
I17
aI7
ag5
ag5
aa(lp1870
I17
aI7
ag5
ag5
aa(lp1871
I17
aI7
ag5
ag5
aa(lp1872
I17
aI7
ag5
ag5
aa(lp1873
I17
aI7
ag5
ag5
aa(lp1874
I17
aI7
ag5
ag5
aa(lp1875
I17
aI7
ag5
ag5
aa(lp1876
I17
aI7
ag5
ag5
aa(lp1877
I17
aI7
ag5
ag5
aa(lp1878
I17
aI7
ag5
ag5
aa(lp1879
I17
aI7
ag5
ag5
aa(lp1880
I17
aI7
ag5
ag5
aa(lp1881
I17
aI7
ag5
ag5
aa(lp1882
I17
aI7
ag5
ag5
aa(lp1883
I17
aI7
ag5
ag5
aa(lp1884
I17
aI7
ag5
ag5
aa(lp1885
I17
aI7
ag5
ag5
aa(lp1886
I17
aI7
ag5
ag5
aa(lp1887
I17
aI7
ag5
ag5
aa(lp1888
I17
aI7
ag5
ag5
aa(lp1889
I17
aI7
ag5
ag5
aa(lp1890
I17
aI7
ag5
ag11
aa(lp1891
I17
aI7
ag5
ag11
aa(lp1892
I17
aI7
ag5
ag11
aa(lp1893
I17
aI7
ag5
ag11
aa(lp1894
I17
aI7
ag5
ag11
aa(lp1895
I17
aI7
ag5
ag11
aa(lp1896
I17
aI7
ag5
ag11
aa(lp1897
I17
aI7
ag5
ag5
aa(lp1898
I17
aI7
ag5
ag5
aa(lp1899
I17
aI7
ag5
ag5
aa(lp1900
I17
aI7
ag5
ag5
aa(lp1901
I17
aI7
ag5
ag5
aa(lp1902
I17
aI7
ag5
ag5
aa(lp1903
I17
aI7
ag5
ag5
aa(lp1904
I17
aI7
ag5
ag5
aa(lp1905
I17
aI7
ag5
ag5
aa(lp1906
I17
aI7
ag5
ag5
aa(lp1907
I17
aI7
ag5
ag5
aa(lp1908
I17
aI7
ag5
ag5
aa(lp1909
I17
aI7
ag5
ag5
aa(lp1910
I17
aI7
ag5
ag5
aa(lp1911
I17
aI7
ag5
ag5
aa(lp1912
I17
aI7
ag5
ag5
aa(lp1913
I17
aI7
ag5
ag5
aa(lp1914
I17
aI7
ag5
ag5
aa(lp1915
I17
aI7
ag5
ag5
aa(lp1916
I17
aI7
ag5
ag5
aa(lp1917
I17
aI7
ag5
ag5
aa(lp1918
I17
aI7
ag5
ag5
aa(lp1919
I17
aI7
ag5
ag5
aa(lp1920
I17
aI7
ag5
ag5
aa(lp1921
I17
aI7
ag5
ag5
aa(lp1922
I17
aI7
ag5
ag5
aa(lp1923
I17
aI7
ag5
ag5
aa(lp1924
I17
aI7
ag5
ag5
aa(lp1925
I17
aI7
ag5
ag5
aa(lp1926
I17
aI7
ag5
ag5
aa(lp1927
I17
aI7
ag5
ag5
aa(lp1928
I17
aI7
ag5
ag11
aa(lp1929
I17
aI7
ag5
ag11
aa(lp1930
I17
aI7
ag5
ag11
aa(lp1931
I17
aI7
ag5
ag11
aa(lp1932
I17
aI7
ag5
ag11
aa(lp1933
I17
aI7
ag5
ag11
aa(lp1934
I17
aI7
ag5
ag11
aa(lp1935
I17
aI7
ag5
ag11
aa(lp1936
I17
aI7
ag5
ag11
aa(lp1937
I17
aI7
ag5
ag11
aa(lp1938
I17
aI7
ag5
ag11
aa(lp1939
I17
aI7
ag5
ag11
aa(lp1940
I17
aI7
ag5
ag11
aa(lp1941
I17
aI7
ag5
ag11
aa(lp1942
I17
aI7
ag5
ag11
aa(lp1943
I17
aI7
ag5
ag11
aa(lp1944
I17
aI7
ag5
ag11
aa(lp1945
I17
aI7
ag5
ag11
aa(lp1946
I17
aI7
ag5
ag11
aa(lp1947
I17
aI7
ag5
ag11
aa(lp1948
I17
aI7
ag5
ag11
aa(lp1949
I17
aI7
ag5
ag11
aa(lp1950
I17
aI7
ag5
ag5
aa(lp1951
I17
aI7
ag5
ag5
aa(lp1952
I17
aI7
ag5
ag5
aa(lp1953
I17
aI7
ag5
ag5
aa(lp1954
I17
aI7
ag5
ag5
aa(lp1955
I17
aI7
ag5
ag5
aa(lp1956
I17
aI7
ag5
ag5
aa(lp1957
I17
aI7
ag5
ag5
aa(lp1958
I17
aI7
ag5
ag5
aa(lp1959
I17
aI7
ag5
ag5
aa(lp1960
I17
aI7
ag5
ag5
aa(lp1961
I17
aI7
ag5
ag5
aa(lp1962
I17
aI7
ag5
ag5
aa(lp1963
I17
aI7
ag5
ag5
aa(lp1964
I17
aI7
ag5
ag5
aa(lp1965
I17
aI7
ag5
ag5
aa(lp1966
I17
aI7
ag5
ag5
aa(lp1967
I17
aI7
ag5
ag5
aa(lp1968
I17
aI7
ag5
ag5
aa(lp1969
I17
aI7
ag5
ag5
aa(lp1970
I17
aI7
ag5
ag5
aa(lp1971
I17
aI7
ag5
ag5
aa(lp1972
I17
aI7
ag5
ag5
aa(lp1973
I17
aI7
ag5
ag5
aa(lp1974
I17
aI7
ag5
ag5
aa(lp1975
I17
aI7
ag5
ag5
aa(lp1976
I17
aI7
ag5
ag5
aa(lp1977
I17
aI7
ag5
ag5
aa(lp1978
I17
aI7
ag5
ag5
aa(lp1979
I17
aI7
ag5
ag5
aa(lp1980
I17
aI7
ag5
ag5
aa(lp1981
I17
aI7
ag5
ag5
aa(lp1982
I17
aI7
ag5
ag5
aa(lp1983
I17
aI7
ag5
ag5
aa(lp1984
I17
aI7
ag5
ag5
aa(lp1985
I17
aI7
ag5
ag5
aa(lp1986
I17
aI7
ag5
ag5
aa(lp1987
I17
aI7
ag5
ag5
aa(lp1988
I17
aI7
ag5
ag5
aa(lp1989
I17
aI7
ag5
ag5
aa(lp1990
I17
aI7
ag5
ag5
aa(lp1991
I17
aI7
ag5
ag5
aa(lp1992
I17
aI7
ag5
ag5
aa(lp1993
I17
aI7
ag5
ag5
aa(lp1994
I17
aI7
ag5
ag5
aa(lp1995
I17
aI7
ag5
ag5
aa(lp1996
I17
aI7
ag5
ag5
aa(lp1997
I17
aI7
ag5
ag5
aa(lp1998
I17
aI7
ag5
ag5
aa(lp1999
I17
aI7
ag5
ag5
aasS'results'
p2000
(lp2001
S'correct'
p2002
ag2002
ag2002
ag2002
ag2002
ag2002
ag2002
ag2002
ag2002
ag2002
ag2002
ag2002
ag2002
ag2002
ag2002
ag2002
ag2002
ag2002
asS'times'
p2003
(lp2004
F78.00300000000061
aF71.9989999999998
aF83.99900000000343
aF140.0010000000002
aF70.99800000000323
aF79.99900000000343
aF103.99900000000343
aF122.0
aF72.0
aF140.0030000000006
aF139.9979999999996
aF90.99700000000303
aF104.0
aF139.99900000000343
aF140.0
aF140.00099999999657
aF124.99800000000323
aF137.9969999999994
as.