(dp0
S'history'
p1
(lp2
(lp3
I0
aI1
aS'B3'
p4
aS'B1'
p5
aa(lp6
I0
aI1
ag4
ag5
aa(lp7
I0
aI1
ag4
ag5
aa(lp8
I0
aI1
ag4
ag5
aa(lp9
I0
aI1
ag4
ag5
aa(lp10
I0
aI1
ag4
ag5
aa(lp11
I0
aI1
ag4
ag4
aa(lp12
I0
aI1
ag4
ag4
aa(lp13
I0
aI1
ag4
ag4
aa(lp14
I0
aI1
ag4
ag4
aa(lp15
I0
aI1
ag4
ag4
aa(lp16
I0
aI1
ag4
ag5
aa(lp17
I0
aI1
ag4
ag5
aa(lp18
I0
aI1
ag4
ag5
aa(lp19
I0
aI1
ag4
ag5
aa(lp20
I0
aI1
ag4
ag5
aa(lp21
I0
aI1
ag4
ag5
aa(lp22
I0
aI1
ag4
ag5
aa(lp23
I0
aI1
ag4
ag4
aa(lp24
I0
aI1
ag4
ag4
aa(lp25
I0
aI1
ag4
ag4
aa(lp26
I0
aI1
ag4
ag4
aa(lp27
I0
aI1
ag4
ag4
aa(lp28
I0
aI1
ag4
ag4
aa(lp29
I0
aI1
ag4
ag4
aa(lp30
I0
aI1
ag4
ag4
aa(lp31
I0
aI1
ag4
ag4
aa(lp32
I0
aI1
ag4
ag4
aa(lp33
I0
aI1
ag4
ag4
aa(lp34
I0
aI1
ag4
ag4
aa(lp35
I0
aI1
ag4
ag5
aa(lp36
I0
aI1
ag4
ag5
aa(lp37
I0
aI1
ag4
ag5
aa(lp38
I0
aI1
ag4
ag4
aa(lp39
I0
aI1
ag4
ag4
aa(lp40
I0
aI1
ag4
ag4
aa(lp41
I0
aI1
ag4
ag4
aa(lp42
I0
aI1
ag4
ag4
aa(lp43
I0
aI1
ag4
ag4
aa(lp44
I0
aI1
ag4
ag4
aa(lp45
I0
aI1
ag4
ag4
aa(lp46
I0
aI1
ag4
ag4
aa(lp47
I0
aI1
ag4
ag4
aa(lp48
I0
aI1
ag4
ag4
aa(lp49
I0
aI1
ag4
ag4
aa(lp50
I0
aI1
ag4
ag4
aa(lp51
I0
aI1
ag4
ag4
aa(lp52
I0
aI1
ag4
ag4
aa(lp53
I0
aI1
ag4
ag4
aa(lp54
I0
aI1
ag4
ag4
aa(lp55
I0
aI1
ag4
ag4
aa(lp56
I0
aI1
ag4
ag4
aa(lp57
I0
aI1
ag4
ag4
aa(lp58
I0
aI1
ag4
ag4
aa(lp59
I0
aI1
ag4
ag4
aa(lp60
I0
aI1
ag4
ag4
aa(lp61
I0
aI1
ag4
ag4
aa(lp62
I0
aI1
ag4
ag4
aa(lp63
I0
aI1
ag4
ag5
aa(lp64
I0
aI1
ag4
ag5
aa(lp65
I0
aI1
ag4
ag5
aa(lp66
I0
aI1
ag4
ag5
aa(lp67
I0
aI1
ag4
ag5
aa(lp68
I0
aI1
ag4
ag5
aa(lp69
I0
aI1
ag4
ag5
aa(lp70
I0
aI1
ag4
ag5
aa(lp71
I0
aI1
ag4
ag5
aa(lp72
I0
aI1
ag4
ag5
aa(lp73
I0
aI1
ag4
ag5
aa(lp74
I0
aI1
ag4
ag5
aa(lp75
I0
aI1
ag4
ag5
aa(lp76
I0
aI1
ag4
ag5
aa(lp77
I0
aI1
ag4
ag5
aa(lp78
I0
aI1
ag4
ag5
aa(lp79
I0
aI1
ag4
ag5
aa(lp80
I0
aI1
ag4
ag5
aa(lp81
I0
aI1
ag4
ag5
aa(lp82
I0
aI1
ag4
ag5
aa(lp83
I0
aI1
ag4
ag4
aa(lp84
I0
aI1
ag4
ag4
aa(lp85
I0
aI1
ag4
ag4
aa(lp86
I0
aI1
ag4
ag4
aa(lp87
I0
aI1
ag4
ag4
aa(lp88
I0
aI1
ag4
ag4
aa(lp89
I0
aI1
ag4
ag4
aa(lp90
I0
aI1
ag4
ag4
aa(lp91
I0
aI1
ag4
ag4
aa(lp92
I0
aI1
ag4
ag4
aa(lp93
I0
aI1
ag4
ag4
aa(lp94
I0
aI1
ag4
ag4
aa(lp95
I0
aI1
ag4
ag4
aa(lp96
I0
aI1
ag4
ag4
aa(lp97
I0
aI1
ag4
ag4
aa(lp98
I0
aI1
ag4
ag4
aa(lp99
I0
aI1
ag4
ag4
aa(lp100
I0
aI1
ag4
ag4
aa(lp101
I0
aI1
ag4
ag4
aa(lp102
I0
aI1
ag4
ag4
aa(lp103
I0
aI1
ag4
ag4
aa(lp104
I0
aI1
ag4
ag4
aa(lp105
I0
aI1
ag4
ag4
aa(lp106
I0
aI1
ag4
ag4
aa(lp107
I0
aI1
ag4
ag4
aa(lp108
I0
aI1
ag4
ag4
aa(lp109
I0
aI1
ag4
ag4
aa(lp110
I0
aI1
ag4
ag4
aa(lp111
I0
aI1
ag4
ag4
aa(lp112
I0
aI1
ag4
ag4
aa(lp113
I0
aI1
ag4
ag4
aa(lp114
I0
aI1
ag4
ag4
aa(lp115
I0
aI1
ag4
ag4
aa(lp116
I0
aI1
ag4
ag4
aa(lp117
I0
aI1
ag4
ag4
aa(lp118
I0
aI1
ag4
ag4
aa(lp119
I0
aI1
ag4
ag4
aa(lp120
I0
aI1
ag4
ag4
aa(lp121
I0
aI1
ag4
ag4
aa(lp122
I0
aI1
ag4
ag4
aa(lp123
I0
aI1
ag4
ag4
aa(lp124
I0
aI1
ag4
ag4
aa(lp125
I0
aI1
ag4
ag4
aa(lp126
I0
aI1
ag4
ag4
aa(lp127
I0
aI1
ag4
ag4
aa(lp128
I0
aI1
ag4
ag4
aa(lp129
I0
aI1
ag4
ag4
aa(lp130
I0
aI1
ag4
ag4
aa(lp131
I0
aI1
ag4
ag4
aa(lp132
I0
aI1
ag4
ag4
aa(lp133
I1
aI0
ag5
ag5
aa(lp134
I1
aI0
ag5
ag5
aa(lp135
I1
aI0
ag5
ag5
aa(lp136
I1
aI0
ag5
ag5
aa(lp137
I1
aI0
ag5
ag5
aa(lp138
I1
aI0
ag5
ag5
aa(lp139
I1
aI0
ag5
ag5
aa(lp140
I1
aI0
ag5
ag5
aa(lp141
I1
aI0
ag5
ag5
aa(lp142
I1
aI0
ag5
ag5
aa(lp143
I1
aI0
ag5
ag5
aa(lp144
I1
aI0
ag5
ag5
aa(lp145
I1
aI0
ag5
ag5
aa(lp146
I1
aI0
ag5
ag5
aa(lp147
I1
aI0
ag5
ag5
aa(lp148
I1
aI0
ag5
ag5
aa(lp149
I1
aI0
ag5
ag5
aa(lp150
I1
aI0
ag5
ag5
aa(lp151
I1
aI0
ag5
ag5
aa(lp152
I1
aI0
ag5
ag5
aa(lp153
I1
aI0
ag5
ag5
aa(lp154
I1
aI0
ag5
ag5
aa(lp155
I1
aI0
ag5
ag5
aa(lp156
I1
aI0
ag5
ag5
aa(lp157
I1
aI0
ag5
ag5
aa(lp158
I1
aI0
ag5
ag5
aa(lp159
I1
aI0
ag5
ag5
aa(lp160
I1
aI0
ag5
ag5
aa(lp161
I1
aI0
ag5
ag5
aa(lp162
I1
aI0
ag5
ag5
aa(lp163
I1
aI0
ag5
ag5
aa(lp164
I1
aI0
ag5
ag5
aa(lp165
I1
aI0
ag5
ag5
aa(lp166
I1
aI0
ag5
ag5
aa(lp167
I1
aI0
ag5
ag5
aa(lp168
I1
aI0
ag5
ag5
aa(lp169
I1
aI0
ag5
ag5
aa(lp170
I1
aI0
ag5
ag5
aa(lp171
I1
aI0
ag5
ag5
aa(lp172
I1
aI0
ag5
ag5
aa(lp173
I1
aI0
ag5
ag5
aa(lp174
I1
aI0
ag5
ag5
aa(lp175
I1
aI0
ag5
ag5
aa(lp176
I1
aI0
ag5
ag5
aa(lp177
I1
aI0
ag5
ag5
aa(lp178
I1
aI0
ag5
ag5
aa(lp179
I1
aI0
ag5
ag5
aa(lp180
I1
aI0
ag5
ag5
aa(lp181
I1
aI0
ag5
ag5
aa(lp182
I1
aI0
ag5
ag5
aa(lp183
I1
aI0
ag5
ag5
aa(lp184
I1
aI0
ag5
ag5
aa(lp185
I1
aI0
ag5
ag5
aa(lp186
I1
aI0
ag5
ag5
aa(lp187
I1
aI0
ag5
ag5
aa(lp188
I1
aI0
ag5
ag5
aa(lp189
I1
aI0
ag5
ag5
aa(lp190
I1
aI0
ag5
ag5
aa(lp191
I1
aI0
ag5
ag5
aa(lp192
I1
aI0
ag5
ag5
aa(lp193
I1
aI0
ag5
ag5
aa(lp194
I1
aI0
ag5
ag5
aa(lp195
I1
aI0
ag5
ag5
aa(lp196
I1
aI0
ag5
aS'B2'
p197
aa(lp198
I1
aI0
ag5
ag197
aa(lp199
I1
aI0
ag5
ag197
aa(lp200
I1
aI0
ag5
ag197
aa(lp201
I1
aI0
ag5
ag197
aa(lp202
I1
aI0
ag5
ag197
aa(lp203
I1
aI0
ag5
ag197
aa(lp204
I1
aI0
ag5
ag197
aa(lp205
I1
aI0
ag5
ag5
aa(lp206
I1
aI0
ag5
ag5
aa(lp207
I1
aI0
ag5
ag5
aa(lp208
I1
aI0
ag5
ag5
aa(lp209
I1
aI0
ag5
ag5
aa(lp210
I1
aI0
ag5
ag5
aa(lp211
I1
aI0
ag5
ag5
aa(lp212
I1
aI0
ag5
ag5
aa(lp213
I1
aI0
ag5
ag5
aa(lp214
I1
aI0
ag5
ag5
aa(lp215
I1
aI0
ag5
ag5
aa(lp216
I1
aI0
ag5
ag5
aa(lp217
I1
aI0
ag5
ag5
aa(lp218
I1
aI0
ag5
ag5
aa(lp219
I1
aI0
ag5
ag5
aa(lp220
I1
aI0
ag5
ag5
aa(lp221
I1
aI0
ag5
ag5
aa(lp222
I1
aI0
ag5
ag5
aa(lp223
I1
aI0
ag5
ag5
aa(lp224
I1
aI0
ag5
ag5
aa(lp225
I1
aI0
ag5
ag5
aa(lp226
I1
aI0
ag5
ag5
aa(lp227
I1
aI0
ag5
ag5
aa(lp228
I1
aI0
ag5
ag5
aa(lp229
I1
aI0
ag5
ag5
aa(lp230
I1
aI0
ag5
ag5
aa(lp231
I1
aI0
ag5
ag5
aa(lp232
I1
aI0
ag5
ag5
aa(lp233
I1
aI0
ag5
ag5
aa(lp234
I1
aI0
ag5
ag5
aa(lp235
I1
aI0
ag5
ag5
aa(lp236
I1
aI0
ag5
ag5
aa(lp237
I1
aI0
ag5
ag5
aa(lp238
I1
aI0
ag5
ag5
aa(lp239
I1
aI0
ag5
ag5
aa(lp240
I1
aI0
ag5
ag5
aa(lp241
I1
aI0
ag5
ag5
aa(lp242
I1
aI0
ag5
ag5
aa(lp243
I1
aI0
ag5
ag5
aa(lp244
I1
aI0
ag5
ag5
aa(lp245
I1
aI0
ag5
ag5
aa(lp246
I1
aI0
ag5
ag5
aa(lp247
I1
aI0
ag5
ag5
aa(lp248
I1
aI0
ag5
ag5
aa(lp249
I1
aI0
ag5
ag5
aa(lp250
I1
aI0
ag5
ag5
aa(lp251
I1
aI0
ag5
ag5
aa(lp252
I1
aI0
ag5
ag5
aa(lp253
I2
aI6
ag5
ag4
aa(lp254
I2
aI6
ag5
ag4
aa(lp255
I2
aI6
ag5
ag4
aa(lp256
I2
aI6
ag5
ag4
aa(lp257
I2
aI6
ag5
ag4
aa(lp258
I2
aI6
ag5
ag4
aa(lp259
I2
aI6
ag5
ag4
aa(lp260
I2
aI6
ag5
ag4
aa(lp261
I2
aI6
ag5
ag4
aa(lp262
I2
aI6
ag5
ag4
aa(lp263
I2
aI6
ag5
ag4
aa(lp264
I2
aI6
ag5
ag4
aa(lp265
I2
aI6
ag5
ag4
aa(lp266
I2
aI6
ag5
ag4
aa(lp267
I2
aI6
ag5
ag4
aa(lp268
I2
aI6
ag5
ag4
aa(lp269
I2
aI6
ag5
ag4
aa(lp270
I2
aI6
ag5
ag4
aa(lp271
I2
aI6
ag5
ag4
aa(lp272
I2
aI6
ag5
ag4
aa(lp273
I2
aI6
ag5
ag4
aa(lp274
I2
aI6
ag5
ag4
aa(lp275
I2
aI6
ag5
ag4
aa(lp276
I2
aI6
ag5
ag4
aa(lp277
I2
aI6
ag5
ag4
aa(lp278
I2
aI6
ag5
ag4
aa(lp279
I2
aI6
ag5
ag4
aa(lp280
I2
aI6
ag5
ag4
aa(lp281
I2
aI6
ag5
ag4
aa(lp282
I2
aI6
ag5
ag4
aa(lp283
I2
aI6
ag5
ag4
aa(lp284
I2
aI6
ag5
ag4
aa(lp285
I2
aI6
ag5
ag4
aa(lp286
I2
aI6
ag5
ag4
aa(lp287
I2
aI6
ag5
ag4
aa(lp288
I2
aI6
ag5
ag4
aa(lp289
I2
aI6
ag5
ag4
aa(lp290
I2
aI6
ag5
ag4
aa(lp291
I2
aI6
ag5
ag4
aa(lp292
I2
aI6
ag5
ag4
aa(lp293
I2
aI6
ag5
ag4
aa(lp294
I2
aI6
ag5
ag4
aa(lp295
I2
aI6
ag5
ag4
aa(lp296
I2
aI6
ag5
ag4
aa(lp297
I2
aI6
ag5
ag4
aa(lp298
I2
aI6
ag5
ag4
aa(lp299
I2
aI6
ag5
ag4
aa(lp300
I2
aI6
ag5
ag4
aa(lp301
I2
aI6
ag5
ag4
aa(lp302
I2
aI6
ag5
ag4
aa(lp303
I2
aI6
ag5
ag5
aa(lp304
I2
aI6
ag5
ag5
aa(lp305
I2
aI6
ag5
ag5
aa(lp306
I2
aI6
ag5
ag5
aa(lp307
I2
aI6
ag5
ag5
aa(lp308
I2
aI6
ag5
ag5
aa(lp309
I2
aI6
ag5
ag5
aa(lp310
I2
aI6
ag5
ag5
aa(lp311
I2
aI6
ag5
ag5
aa(lp312
I2
aI6
ag5
ag5
aa(lp313
I2
aI6
ag5
ag5
aa(lp314
I2
aI6
ag5
ag5
aa(lp315
I2
aI6
ag5
ag5
aa(lp316
I2
aI6
ag5
ag5
aa(lp317
I2
aI6
ag5
ag5
aa(lp318
I2
aI6
ag5
ag5
aa(lp319
I2
aI6
ag5
ag5
aa(lp320
I2
aI6
ag5
ag5
aa(lp321
I2
aI6
ag5
ag5
aa(lp322
I2
aI6
ag5
ag5
aa(lp323
I2
aI6
ag5
ag5
aa(lp324
I2
aI6
ag5
ag5
aa(lp325
I2
aI6
ag5
ag5
aa(lp326
I2
aI6
ag5
ag5
aa(lp327
I2
aI6
ag5
ag5
aa(lp328
I2
aI6
ag5
ag5
aa(lp329
I2
aI6
ag5
ag5
aa(lp330
I2
aI6
ag5
ag5
aa(lp331
I2
aI6
ag5
ag5
aa(lp332
I2
aI6
ag5
ag5
aa(lp333
I2
aI6
ag5
ag5
aa(lp334
I2
aI6
ag5
ag5
aa(lp335
I2
aI6
ag5
ag5
aa(lp336
I2
aI6
ag5
ag5
aa(lp337
I2
aI6
ag5
ag5
aa(lp338
I2
aI6
ag5
ag5
aa(lp339
I2
aI6
ag5
ag5
aa(lp340
I2
aI6
ag5
ag5
aa(lp341
I2
aI6
ag5
ag5
aa(lp342
I2
aI6
ag5
ag5
aa(lp343
I2
aI6
ag5
ag4
aa(lp344
I2
aI6
ag5
ag5
aa(lp345
I2
aI6
ag5
ag5
aa(lp346
I2
aI6
ag5
ag5
aa(lp347
I2
aI6
ag5
ag5
aa(lp348
I2
aI6
ag5
ag5
aa(lp349
I2
aI6
ag5
ag5
aa(lp350
I2
aI6
ag5
ag5
aa(lp351
I2
aI6
ag5
ag5
aa(lp352
I2
aI6
ag5
ag5
aa(lp353
I2
aI6
ag5
ag5
aa(lp354
I2
aI6
ag5
ag5
aa(lp355
I2
aI6
ag5
ag5
aa(lp356
I2
aI6
ag5
ag5
aa(lp357
I2
aI6
ag5
ag5
aa(lp358
I2
aI6
ag5
ag5
aa(lp359
I2
aI6
ag5
ag5
aa(lp360
I2
aI6
ag5
ag5
aa(lp361
I2
aI6
ag5
ag5
aa(lp362
I2
aI6
ag5
ag5
aa(lp363
I2
aI6
ag5
ag5
aa(lp364
I2
aI6
ag5
ag5
aa(lp365
I2
aI6
ag5
ag5
aa(lp366
I3
aI2
ag197
ag4
aa(lp367
I3
aI2
ag197
ag4
aa(lp368
I3
aI2
ag197
ag4
aa(lp369
I3
aI2
ag197
ag4
aa(lp370
I3
aI2
ag197
ag4
aa(lp371
I3
aI2
ag197
ag4
aa(lp372
I3
aI2
ag197
ag197
aa(lp373
I3
aI2
ag197
ag197
aa(lp374
I3
aI2
ag197
ag197
aa(lp375
I3
aI2
ag197
ag197
aa(lp376
I3
aI2
ag197
ag197
aa(lp377
I3
aI2
ag197
ag197
aa(lp378
I3
aI2
ag197
ag197
aa(lp379
I3
aI2
ag197
ag197
aa(lp380
I3
aI2
ag197
ag197
aa(lp381
I3
aI2
ag197
ag197
aa(lp382
I3
aI2
ag197
ag197
aa(lp383
I3
aI2
ag197
ag197
aa(lp384
I3
aI2
ag197
ag197
aa(lp385
I3
aI2
ag197
ag197
aa(lp386
I3
aI2
ag197
ag197
aa(lp387
I3
aI2
ag197
ag197
aa(lp388
I3
aI2
ag197
ag197
aa(lp389
I3
aI2
ag197
ag197
aa(lp390
I3
aI2
ag197
ag197
aa(lp391
I3
aI2
ag197
ag197
aa(lp392
I3
aI2
ag197
ag197
aa(lp393
I3
aI2
ag197
ag197
aa(lp394
I3
aI2
ag197
ag197
aa(lp395
I3
aI2
ag197
ag197
aa(lp396
I3
aI2
ag197
ag197
aa(lp397
I3
aI2
ag197
ag197
aa(lp398
I3
aI2
ag197
ag197
aa(lp399
I3
aI2
ag197
ag197
aa(lp400
I3
aI2
ag197
ag197
aa(lp401
I3
aI2
ag197
ag197
aa(lp402
I3
aI2
ag197
ag197
aa(lp403
I3
aI2
ag197
ag197
aa(lp404
I3
aI2
ag197
ag197
aa(lp405
I3
aI2
ag197
ag197
aa(lp406
I3
aI2
ag197
ag197
aa(lp407
I3
aI2
ag197
ag197
aa(lp408
I3
aI2
ag197
ag197
aa(lp409
I3
aI2
ag197
ag197
aa(lp410
I3
aI2
ag197
ag197
aa(lp411
I3
aI2
ag197
ag197
aa(lp412
I3
aI2
ag197
ag197
aa(lp413
I3
aI2
ag197
ag197
aa(lp414
I3
aI2
ag197
ag197
aa(lp415
I3
aI2
ag197
ag197
aa(lp416
I3
aI2
ag197
ag197
aa(lp417
I3
aI2
ag197
ag197
aa(lp418
I3
aI2
ag197
ag197
aa(lp419
I3
aI2
ag197
ag197
aa(lp420
I3
aI2
ag197
ag197
aa(lp421
I3
aI2
ag197
ag197
aa(lp422
I3
aI2
ag197
ag197
aa(lp423
I3
aI2
ag197
ag197
aa(lp424
I3
aI2
ag197
ag197
aa(lp425
I3
aI2
ag197
ag197
aa(lp426
I3
aI2
ag197
ag197
aa(lp427
I3
aI2
ag197
ag197
aa(lp428
I3
aI2
ag197
ag197
aa(lp429
I3
aI2
ag197
ag197
aa(lp430
I3
aI2
ag197
ag197
aa(lp431
I3
aI2
ag197
ag197
aa(lp432
I3
aI2
ag197
ag197
aa(lp433
I3
aI2
ag197
ag197
aa(lp434
I3
aI2
ag197
ag197
aa(lp435
I3
aI2
ag197
ag197
aa(lp436
I3
aI2
ag197
ag197
aa(lp437
I3
aI2
ag197
ag197
aa(lp438
I4
aI5
ag197
ag5
aa(lp439
I4
aI5
ag197
ag5
aa(lp440
I4
aI5
ag197
ag5
aa(lp441
I4
aI5
ag197
ag5
aa(lp442
I4
aI5
ag197
ag5
aa(lp443
I4
aI5
ag197
ag5
aa(lp444
I4
aI5
ag197
ag5
aa(lp445
I4
aI5
ag197
ag5
aa(lp446
I4
aI5
ag197
ag197
aa(lp447
I4
aI5
ag197
ag197
aa(lp448
I4
aI5
ag197
ag197
aa(lp449
I4
aI5
ag197
ag197
aa(lp450
I4
aI5
ag197
ag197
aa(lp451
I4
aI5
ag197
ag197
aa(lp452
I4
aI5
ag197
ag197
aa(lp453
I4
aI5
ag197
ag197
aa(lp454
I4
aI5
ag197
ag197
aa(lp455
I4
aI5
ag197
ag197
aa(lp456
I4
aI5
ag197
ag197
aa(lp457
I4
aI5
ag197
ag197
aa(lp458
I4
aI5
ag197
ag197
aa(lp459
I4
aI5
ag197
ag197
aa(lp460
I4
aI5
ag197
ag197
aa(lp461
I4
aI5
ag197
ag197
aa(lp462
I4
aI5
ag197
ag197
aa(lp463
I4
aI5
ag197
ag197
aa(lp464
I4
aI5
ag197
ag197
aa(lp465
I4
aI5
ag197
ag197
aa(lp466
I4
aI5
ag197
ag197
aa(lp467
I4
aI5
ag197
ag197
aa(lp468
I4
aI5
ag197
ag197
aa(lp469
I4
aI5
ag197
ag197
aa(lp470
I4
aI5
ag197
ag197
aa(lp471
I4
aI5
ag197
ag197
aa(lp472
I4
aI5
ag197
ag197
aa(lp473
I4
aI5
ag197
ag197
aa(lp474
I4
aI5
ag197
ag197
aa(lp475
I4
aI5
ag197
ag197
aa(lp476
I4
aI5
ag197
ag197
aa(lp477
I4
aI5
ag197
ag197
aa(lp478
I4
aI5
ag197
ag197
aa(lp479
I4
aI5
ag197
ag197
aa(lp480
I4
aI5
ag197
ag197
aa(lp481
I4
aI5
ag197
ag197
aa(lp482
I4
aI5
ag197
ag197
aa(lp483
I4
aI5
ag197
ag197
aa(lp484
I4
aI5
ag197
ag197
aa(lp485
I4
aI5
ag197
ag197
aa(lp486
I4
aI5
ag197
ag197
aa(lp487
I4
aI5
ag197
ag197
aa(lp488
I4
aI5
ag197
ag197
aa(lp489
I4
aI5
ag197
ag197
aa(lp490
I4
aI5
ag197
ag197
aa(lp491
I4
aI5
ag197
ag197
aa(lp492
I4
aI5
ag197
ag197
aa(lp493
I4
aI5
ag197
ag197
aa(lp494
I4
aI5
ag197
ag197
aa(lp495
I4
aI5
ag197
ag197
aa(lp496
I4
aI5
ag197
ag197
aa(lp497
I4
aI5
ag197
ag197
aa(lp498
I4
aI5
ag197
ag197
aa(lp499
I4
aI5
ag197
ag197
aa(lp500
I4
aI5
ag197
ag197
aa(lp501
I4
aI5
ag197
ag197
aa(lp502
I4
aI5
ag197
ag197
aa(lp503
I4
aI5
ag197
ag197
aa(lp504
I4
aI5
ag197
ag197
aa(lp505
I4
aI5
ag197
ag197
aa(lp506
I4
aI5
ag197
ag197
aa(lp507
I4
aI5
ag197
ag197
aa(lp508
I4
aI5
ag197
ag197
aa(lp509
I4
aI5
ag197
ag197
aa(lp510
I4
aI5
ag197
ag197
aa(lp511
I4
aI5
ag197
ag197
aa(lp512
I4
aI5
ag197
ag197
aa(lp513
I5
aI7
ag5
ag5
aa(lp514
I5
aI7
ag5
ag5
aa(lp515
I5
aI7
ag5
ag5
aa(lp516
I5
aI7
ag5
ag5
aa(lp517
I5
aI7
ag5
ag5
aa(lp518
I5
aI7
ag5
ag5
aa(lp519
I5
aI7
ag5
ag5
aa(lp520
I5
aI7
ag5
ag5
aa(lp521
I5
aI7
ag5
ag5
aa(lp522
I5
aI7
ag5
ag5
aa(lp523
I5
aI7
ag5
ag5
aa(lp524
I5
aI7
ag5
ag5
aa(lp525
I5
aI7
ag5
ag5
aa(lp526
I5
aI7
ag5
ag5
aa(lp527
I5
aI7
ag5
ag5
aa(lp528
I5
aI7
ag5
ag5
aa(lp529
I5
aI7
ag5
ag5
aa(lp530
I5
aI7
ag5
ag5
aa(lp531
I5
aI7
ag5
ag5
aa(lp532
I5
aI7
ag5
ag5
aa(lp533
I5
aI7
ag5
ag5
aa(lp534
I5
aI7
ag5
ag5
aa(lp535
I5
aI7
ag5
ag5
aa(lp536
I5
aI7
ag5
ag5
aa(lp537
I5
aI7
ag5
ag5
aa(lp538
I5
aI7
ag5
ag5
aa(lp539
I5
aI7
ag5
ag5
aa(lp540
I5
aI7
ag5
ag5
aa(lp541
I5
aI7
ag5
ag5
aa(lp542
I5
aI7
ag5
ag5
aa(lp543
I5
aI7
ag5
ag5
aa(lp544
I5
aI7
ag5
ag5
aa(lp545
I5
aI7
ag5
ag5
aa(lp546
I5
aI7
ag5
ag5
aa(lp547
I5
aI7
ag5
ag5
aa(lp548
I5
aI7
ag5
ag5
aa(lp549
I5
aI7
ag5
ag5
aa(lp550
I5
aI7
ag5
ag5
aa(lp551
I5
aI7
ag5
ag5
aa(lp552
I5
aI7
ag5
ag5
aa(lp553
I5
aI7
ag5
ag5
aa(lp554
I5
aI7
ag5
ag5
aa(lp555
I5
aI7
ag5
ag5
aa(lp556
I5
aI7
ag5
ag5
aa(lp557
I5
aI7
ag5
ag5
aa(lp558
I5
aI7
ag5
ag5
aa(lp559
I5
aI7
ag5
ag5
aa(lp560
I5
aI7
ag5
ag5
aa(lp561
I5
aI7
ag5
ag5
aa(lp562
I5
aI7
ag5
ag5
aa(lp563
I5
aI7
ag5
ag5
aa(lp564
I5
aI7
ag5
ag5
aa(lp565
I5
aI7
ag5
ag5
aa(lp566
I5
aI7
ag5
ag5
aa(lp567
I5
aI7
ag5
ag5
aa(lp568
I5
aI7
ag5
ag5
aa(lp569
I5
aI7
ag5
ag5
aa(lp570
I5
aI7
ag5
ag5
aa(lp571
I5
aI7
ag5
ag5
aa(lp572
I5
aI7
ag5
ag5
aa(lp573
I5
aI7
ag5
ag5
aa(lp574
I5
aI7
ag5
ag5
aa(lp575
I5
aI7
ag5
ag4
aa(lp576
I5
aI7
ag5
ag4
aa(lp577
I5
aI7
ag5
ag4
aa(lp578
I5
aI7
ag5
ag4
aa(lp579
I5
aI7
ag5
ag4
aa(lp580
I5
aI7
ag5
ag4
aa(lp581
I5
aI7
ag5
ag4
aa(lp582
I5
aI7
ag5
ag4
aa(lp583
I5
aI7
ag5
ag4
aa(lp584
I5
aI7
ag5
ag4
aa(lp585
I5
aI7
ag5
ag4
aa(lp586
I5
aI7
ag5
ag4
aa(lp587
I5
aI7
ag5
ag4
aa(lp588
I5
aI7
ag5
ag4
aa(lp589
I5
aI7
ag5
ag4
aa(lp590
I5
aI7
ag5
ag4
aa(lp591
I5
aI7
ag5
ag4
aa(lp592
I5
aI7
ag5
ag4
aa(lp593
I5
aI7
ag5
ag4
aa(lp594
I5
aI7
ag5
ag4
aa(lp595
I5
aI7
ag5
ag4
aa(lp596
I5
aI7
ag5
ag4
aa(lp597
I5
aI7
ag5
ag4
aa(lp598
I5
aI7
ag5
ag4
aa(lp599
I5
aI7
ag5
ag4
aa(lp600
I5
aI7
ag5
ag4
aa(lp601
I5
aI7
ag5
ag4
aa(lp602
I5
aI7
ag5
ag5
aa(lp603
I5
aI7
ag5
ag5
aa(lp604
I5
aI7
ag5
ag5
aa(lp605
I5
aI7
ag5
ag5
aa(lp606
I5
aI7
ag5
ag5
aa(lp607
I5
aI7
ag5
ag5
aa(lp608
I5
aI7
ag5
ag5
aa(lp609
I5
aI7
ag5
ag5
aa(lp610
I5
aI7
ag5
ag5
aa(lp611
I5
aI7
ag5
ag5
aa(lp612
I5
aI7
ag5
ag5
aa(lp613
I5
aI7
ag5
ag5
aa(lp614
I5
aI7
ag5
ag5
aa(lp615
I5
aI7
ag5
ag5
aa(lp616
I5
aI7
ag5
ag5
aa(lp617
I5
aI7
ag5
ag5
aa(lp618
I5
aI7
ag5
ag5
aa(lp619
I5
aI7
ag5
ag5
aa(lp620
I5
aI7
ag5
ag5
aa(lp621
I5
aI7
ag5
ag5
aa(lp622
I5
aI7
ag5
ag5
aa(lp623
I5
aI7
ag5
ag5
aa(lp624
I5
aI7
ag5
ag5
aa(lp625
I5
aI7
ag5
ag5
aa(lp626
I5
aI7
ag5
ag5
aa(lp627
I5
aI7
ag5
ag5
aa(lp628
I5
aI7
ag5
ag5
aa(lp629
I5
aI7
ag5
ag5
aa(lp630
I5
aI7
ag5
ag5
aa(lp631
I5
aI7
ag5
ag5
aa(lp632
I5
aI7
ag5
ag5
aa(lp633
I5
aI7
ag5
ag5
aa(lp634
I5
aI7
ag5
ag5
aa(lp635
I5
aI7
ag5
ag5
aa(lp636
I5
aI7
ag5
ag5
aa(lp637
I5
aI7
ag5
ag5
aa(lp638
I5
aI7
ag5
ag5
aa(lp639
I5
aI7
ag5
ag5
aa(lp640
I5
aI7
ag5
ag5
aa(lp641
I5
aI7
ag5
ag5
aa(lp642
I5
aI7
ag5
ag5
aa(lp643
I5
aI7
ag5
ag5
aa(lp644
I5
aI7
ag5
ag5
aa(lp645
I5
aI7
ag5
ag5
aa(lp646
I5
aI7
ag5
ag5
aa(lp647
I5
aI7
ag5
ag5
aa(lp648
I5
aI7
ag5
ag5
aa(lp649
I5
aI7
ag5
ag5
aa(lp650
I5
aI7
ag5
ag5
aa(lp651
I6
aI0
ag5
ag5
aa(lp652
I6
aI0
ag5
ag5
aa(lp653
I6
aI0
ag5
ag5
aa(lp654
I6
aI0
ag5
ag5
aa(lp655
I6
aI0
ag5
ag5
aa(lp656
I6
aI0
ag5
ag5
aa(lp657
I6
aI0
ag5
ag5
aa(lp658
I6
aI0
ag5
ag5
aa(lp659
I6
aI0
ag5
ag4
aa(lp660
I6
aI0
ag5
ag4
aa(lp661
I6
aI0
ag5
ag4
aa(lp662
I6
aI0
ag5
ag4
aa(lp663
I6
aI0
ag5
ag4
aa(lp664
I6
aI0
ag5
ag4
aa(lp665
I6
aI0
ag5
ag4
aa(lp666
I6
aI0
ag5
ag4
aa(lp667
I6
aI0
ag5
ag4
aa(lp668
I6
aI0
ag5
ag4
aa(lp669
I6
aI0
ag5
ag4
aa(lp670
I6
aI0
ag5
ag4
aa(lp671
I6
aI0
ag5
ag4
aa(lp672
I6
aI0
ag5
ag4
aa(lp673
I6
aI0
ag5
ag4
aa(lp674
I6
aI0
ag5
ag4
aa(lp675
I6
aI0
ag5
ag4
aa(lp676
I6
aI0
ag5
ag4
aa(lp677
I6
aI0
ag5
ag4
aa(lp678
I6
aI0
ag5
ag4
aa(lp679
I6
aI0
ag5
ag4
aa(lp680
I6
aI0
ag5
ag4
aa(lp681
I6
aI0
ag5
ag4
aa(lp682
I6
aI0
ag5
ag4
aa(lp683
I6
aI0
ag5
ag4
aa(lp684
I6
aI0
ag5
ag4
aa(lp685
I6
aI0
ag5
ag4
aa(lp686
I6
aI0
ag5
ag4
aa(lp687
I6
aI0
ag5
ag4
aa(lp688
I6
aI0
ag5
ag4
aa(lp689
I6
aI0
ag5
ag4
aa(lp690
I6
aI0
ag5
ag4
aa(lp691
I6
aI0
ag5
ag4
aa(lp692
I6
aI0
ag5
ag4
aa(lp693
I6
aI0
ag5
ag4
aa(lp694
I6
aI0
ag5
ag4
aa(lp695
I6
aI0
ag5
ag4
aa(lp696
I6
aI0
ag5
ag4
aa(lp697
I6
aI0
ag5
ag4
aa(lp698
I6
aI0
ag5
ag4
aa(lp699
I6
aI0
ag5
ag4
aa(lp700
I6
aI0
ag5
ag4
aa(lp701
I6
aI0
ag5
ag4
aa(lp702
I6
aI0
ag5
ag4
aa(lp703
I6
aI0
ag5
ag4
aa(lp704
I6
aI0
ag5
ag4
aa(lp705
I6
aI0
ag5
ag4
aa(lp706
I6
aI0
ag5
ag4
aa(lp707
I6
aI0
ag5
ag4
aa(lp708
I6
aI0
ag5
ag4
aa(lp709
I6
aI0
ag5
ag4
aa(lp710
I6
aI0
ag5
ag4
aa(lp711
I6
aI0
ag5
ag4
aa(lp712
I6
aI0
ag5
ag4
aa(lp713
I6
aI0
ag5
ag4
aa(lp714
I6
aI0
ag5
ag4
aa(lp715
I6
aI0
ag5
ag4
aa(lp716
I6
aI0
ag5
ag4
aa(lp717
I6
aI0
ag5
ag5
aa(lp718
I6
aI0
ag5
ag5
aa(lp719
I6
aI0
ag5
ag5
aa(lp720
I6
aI0
ag5
ag5
aa(lp721
I6
aI0
ag5
ag5
aa(lp722
I6
aI0
ag5
ag5
aa(lp723
I6
aI0
ag5
ag5
aa(lp724
I6
aI0
ag5
ag5
aa(lp725
I6
aI0
ag5
ag5
aa(lp726
I6
aI0
ag5
ag5
aa(lp727
I6
aI0
ag5
ag5
aa(lp728
I6
aI0
ag5
ag5
aa(lp729
I6
aI0
ag5
ag5
aa(lp730
I6
aI0
ag5
ag5
aa(lp731
I6
aI0
ag5
ag5
aa(lp732
I6
aI0
ag5
ag5
aa(lp733
I6
aI0
ag5
ag5
aa(lp734
I6
aI0
ag5
ag5
aa(lp735
I6
aI0
ag5
ag5
aa(lp736
I6
aI0
ag5
ag5
aa(lp737
I6
aI0
ag5
ag5
aa(lp738
I6
aI0
ag5
ag5
aa(lp739
I6
aI0
ag5
ag5
aa(lp740
I6
aI0
ag5
ag5
aa(lp741
I6
aI0
ag5
ag5
aa(lp742
I6
aI0
ag5
ag5
aa(lp743
I6
aI0
ag5
ag5
aa(lp744
I6
aI0
ag5
ag5
aa(lp745
I6
aI0
ag5
ag5
aa(lp746
I6
aI0
ag5
ag5
aa(lp747
I6
aI0
ag5
ag5
aa(lp748
I6
aI0
ag5
ag5
aa(lp749
I6
aI0
ag5
ag5
aa(lp750
I6
aI0
ag5
ag5
aa(lp751
I6
aI0
ag5
ag5
aa(lp752
I6
aI0
ag5
ag5
aa(lp753
I6
aI0
ag5
ag5
aa(lp754
I6
aI0
ag5
ag5
aa(lp755
I6
aI0
ag5
ag5
aa(lp756
I6
aI0
ag5
ag5
aa(lp757
I6
aI0
ag5
ag5
aa(lp758
I6
aI0
ag5
ag5
aa(lp759
I6
aI0
ag5
ag5
aa(lp760
I6
aI0
ag5
ag5
aa(lp761
I6
aI0
ag5
ag5
aa(lp762
I6
aI0
ag5
ag5
aa(lp763
I6
aI0
ag5
ag5
aa(lp764
I6
aI0
ag5
ag5
aa(lp765
I6
aI0
ag5
ag5
aa(lp766
I6
aI0
ag5
ag5
aa(lp767
I6
aI0
ag5
ag5
aa(lp768
I6
aI0
ag5
ag5
aa(lp769
I6
aI0
ag5
ag5
aa(lp770
I6
aI0
ag5
ag5
aa(lp771
I6
aI0
ag5
ag5
aa(lp772
I6
aI0
ag5
ag5
aa(lp773
I6
aI0
ag5
ag5
aa(lp774
I6
aI0
ag5
ag5
aa(lp775
I6
aI0
ag5
ag5
aa(lp776
I6
aI0
ag5
ag5
aa(lp777
I6
aI0
ag5
ag5
aa(lp778
I6
aI0
ag5
ag5
aa(lp779
I6
aI0
ag5
ag5
aa(lp780
I6
aI0
ag5
ag5
aa(lp781
I6
aI0
ag5
ag5
aa(lp782
I6
aI0
ag5
ag5
aa(lp783
I6
aI0
ag5
ag5
aa(lp784
I6
aI0
ag5
ag5
aa(lp785
I6
aI0
ag5
ag5
aa(lp786
I6
aI0
ag5
ag5
aa(lp787
I6
aI0
ag5
ag5
aa(lp788
I6
aI0
ag5
ag5
aa(lp789
I6
aI0
ag5
ag5
aa(lp790
I6
aI0
ag5
ag5
aa(lp791
I7
aI3
ag197
ag4
aa(lp792
I7
aI3
ag197
ag4
aa(lp793
I7
aI3
ag197
ag4
aa(lp794
I7
aI3
ag197
ag4
aa(lp795
I7
aI3
ag197
ag197
aa(lp796
I7
aI3
ag197
ag197
aa(lp797
I7
aI3
ag197
ag197
aa(lp798
I7
aI3
ag197
ag197
aa(lp799
I7
aI3
ag197
ag197
aa(lp800
I7
aI3
ag197
ag197
aa(lp801
I7
aI3
ag197
ag197
aa(lp802
I7
aI3
ag197
ag197
aa(lp803
I7
aI3
ag197
ag197
aa(lp804
I7
aI3
ag197
ag197
aa(lp805
I7
aI3
ag197
ag197
aa(lp806
I7
aI3
ag197
ag197
aa(lp807
I7
aI3
ag197
ag197
aa(lp808
I7
aI3
ag197
ag197
aa(lp809
I7
aI3
ag197
ag197
aa(lp810
I7
aI3
ag197
ag197
aa(lp811
I7
aI3
ag197
ag197
aa(lp812
I7
aI3
ag197
ag197
aa(lp813
I7
aI3
ag197
ag197
aa(lp814
I7
aI3
ag197
ag197
aa(lp815
I7
aI3
ag197
ag197
aa(lp816
I7
aI3
ag197
ag197
aa(lp817
I7
aI3
ag197
ag197
aa(lp818
I7
aI3
ag197
ag197
aa(lp819
I7
aI3
ag197
ag197
aa(lp820
I7
aI3
ag197
ag197
aa(lp821
I7
aI3
ag197
ag197
aa(lp822
I7
aI3
ag197
ag197
aa(lp823
I7
aI3
ag197
ag197
aa(lp824
I7
aI3
ag197
ag197
aa(lp825
I7
aI3
ag197
ag197
aa(lp826
I7
aI3
ag197
ag197
aa(lp827
I7
aI3
ag197
ag197
aa(lp828
I7
aI3
ag197
ag197
aa(lp829
I7
aI3
ag197
ag197
aa(lp830
I7
aI3
ag197
ag197
aa(lp831
I7
aI3
ag197
ag197
aa(lp832
I7
aI3
ag197
ag197
aa(lp833
I7
aI3
ag197
ag197
aa(lp834
I7
aI3
ag197
ag197
aa(lp835
I7
aI3
ag197
ag197
aa(lp836
I7
aI3
ag197
ag197
aa(lp837
I7
aI3
ag197
ag197
aa(lp838
I7
aI3
ag197
ag197
aa(lp839
I7
aI3
ag197
ag197
aa(lp840
I7
aI3
ag197
ag197
aa(lp841
I7
aI3
ag197
ag197
aa(lp842
I7
aI3
ag197
ag197
aa(lp843
I7
aI3
ag197
ag197
aa(lp844
I7
aI3
ag197
ag197
aa(lp845
I7
aI3
ag197
ag197
aa(lp846
I7
aI3
ag197
ag197
aa(lp847
I7
aI3
ag197
ag197
aa(lp848
I7
aI3
ag197
ag197
aa(lp849
I7
aI3
ag197
ag197
aa(lp850
I7
aI3
ag197
ag197
aa(lp851
I7
aI3
ag197
ag197
aa(lp852
I7
aI3
ag197
ag197
aa(lp853
I7
aI3
ag197
ag197
aa(lp854
I7
aI3
ag197
ag197
aa(lp855
I7
aI3
ag197
ag197
aa(lp856
I7
aI3
ag197
ag197
aa(lp857
I7
aI3
ag197
ag197
aa(lp858
I7
aI3
ag197
ag197
aa(lp859
I7
aI3
ag197
ag197
aa(lp860
I7
aI3
ag197
ag197
aa(lp861
I7
aI3
ag197
ag197
aa(lp862
I7
aI3
ag197
ag197
aa(lp863
I7
aI3
ag197
ag197
aa(lp864
I7
aI3
ag197
ag197
aa(lp865
I7
aI3
ag197
ag197
aa(lp866
I7
aI3
ag197
ag197
aa(lp867
I8
aI4
ag5
ag5
aa(lp868
I8
aI4
ag5
ag5
aa(lp869
I8
aI4
ag5
ag5
aa(lp870
I8
aI4
ag5
ag5
aa(lp871
I8
aI4
ag5
ag5
aa(lp872
I8
aI4
ag5
ag5
aa(lp873
I8
aI4
ag5
ag4
aa(lp874
I8
aI4
ag5
ag4
aa(lp875
I8
aI4
ag5
ag4
aa(lp876
I8
aI4
ag5
ag4
aa(lp877
I8
aI4
ag5
ag4
aa(lp878
I8
aI4
ag5
ag4
aa(lp879
I8
aI4
ag5
ag4
aa(lp880
I8
aI4
ag5
ag4
aa(lp881
I8
aI4
ag5
ag4
aa(lp882
I8
aI4
ag5
ag4
aa(lp883
I8
aI4
ag5
ag4
aa(lp884
I8
aI4
ag5
ag4
aa(lp885
I8
aI4
ag5
ag4
aa(lp886
I8
aI4
ag5
ag5
aa(lp887
I8
aI4
ag5
ag5
aa(lp888
I8
aI4
ag5
ag5
aa(lp889
I8
aI4
ag5
ag5
aa(lp890
I8
aI4
ag5
ag4
aa(lp891
I8
aI4
ag5
ag4
aa(lp892
I8
aI4
ag5
ag4
aa(lp893
I8
aI4
ag5
ag4
aa(lp894
I8
aI4
ag5
ag4
aa(lp895
I8
aI4
ag5
ag4
aa(lp896
I8
aI4
ag5
ag4
aa(lp897
I8
aI4
ag5
ag4
aa(lp898
I8
aI4
ag5
ag4
aa(lp899
I8
aI4
ag5
ag4
aa(lp900
I8
aI4
ag5
ag4
aa(lp901
I8
aI4
ag5
ag4
aa(lp902
I8
aI4
ag5
ag4
aa(lp903
I8
aI4
ag5
ag4
aa(lp904
I8
aI4
ag5
ag4
aa(lp905
I8
aI4
ag5
ag4
aa(lp906
I8
aI4
ag5
ag4
aa(lp907
I8
aI4
ag5
ag4
aa(lp908
I8
aI4
ag5
ag4
aa(lp909
I8
aI4
ag5
ag4
aa(lp910
I8
aI4
ag5
ag4
aa(lp911
I8
aI4
ag5
ag5
aa(lp912
I8
aI4
ag5
ag5
aa(lp913
I8
aI4
ag5
ag5
aa(lp914
I8
aI4
ag5
ag5
aa(lp915
I8
aI4
ag5
ag5
aa(lp916
I8
aI4
ag5
ag5
aa(lp917
I8
aI4
ag5
ag5
aa(lp918
I8
aI4
ag5
ag5
aa(lp919
I8
aI4
ag5
ag197
aa(lp920
I8
aI4
ag5
ag197
aa(lp921
I8
aI4
ag5
ag197
aa(lp922
I8
aI4
ag5
ag197
aa(lp923
I8
aI4
ag5
ag4
aa(lp924
I8
aI4
ag5
ag5
aa(lp925
I8
aI4
ag5
ag5
aa(lp926
I8
aI4
ag5
ag5
aa(lp927
I8
aI4
ag5
ag5
aa(lp928
I8
aI4
ag5
ag5
aa(lp929
I8
aI4
ag5
ag5
aa(lp930
I8
aI4
ag5
ag5
aa(lp931
I8
aI4
ag5
ag5
aa(lp932
I8
aI4
ag5
ag5
aa(lp933
I8
aI4
ag5
ag5
aa(lp934
I8
aI4
ag5
ag5
aa(lp935
I8
aI4
ag5
ag5
aa(lp936
I8
aI4
ag5
ag5
aa(lp937
I8
aI4
ag5
ag5
aa(lp938
I8
aI4
ag5
ag5
aa(lp939
I8
aI4
ag5
ag5
aa(lp940
I8
aI4
ag5
ag5
aa(lp941
I8
aI4
ag5
ag5
aa(lp942
I8
aI4
ag5
ag5
aa(lp943
I8
aI4
ag5
ag5
aa(lp944
I8
aI4
ag5
ag5
aa(lp945
I8
aI4
ag5
ag5
aa(lp946
I8
aI4
ag5
ag5
aa(lp947
I8
aI4
ag5
ag5
aa(lp948
I8
aI4
ag5
ag5
aa(lp949
I8
aI4
ag5
ag5
aa(lp950
I8
aI4
ag5
ag5
aa(lp951
I8
aI4
ag5
ag5
aa(lp952
I8
aI4
ag5
ag5
aa(lp953
I8
aI4
ag5
ag5
aa(lp954
I8
aI4
ag5
ag5
aa(lp955
I8
aI4
ag5
ag5
aa(lp956
I8
aI4
ag5
ag5
aa(lp957
I8
aI4
ag5
ag5
aa(lp958
I8
aI4
ag5
ag5
aa(lp959
I8
aI4
ag5
ag5
aa(lp960
I8
aI4
ag5
ag5
aa(lp961
I8
aI4
ag5
ag5
aa(lp962
I8
aI4
ag5
ag5
aa(lp963
I8
aI4
ag5
ag5
aa(lp964
I8
aI4
ag5
ag5
aa(lp965
I8
aI4
ag5
ag5
aa(lp966
I8
aI4
ag5
ag5
aa(lp967
I8
aI4
ag5
ag5
aa(lp968
I8
aI4
ag5
ag5
aa(lp969
I8
aI4
ag5
ag5
aa(lp970
I8
aI4
ag5
ag5
aa(lp971
I8
aI4
ag5
ag5
aa(lp972
I8
aI4
ag5
ag5
aa(lp973
I8
aI4
ag5
ag5
aa(lp974
I8
aI4
ag5
ag5
aa(lp975
I9
aI4
ag5
ag4
aa(lp976
I9
aI4
ag5
ag4
aa(lp977
I9
aI4
ag5
ag4
aa(lp978
I9
aI4
ag5
ag4
aa(lp979
I9
aI4
ag5
ag4
aa(lp980
I9
aI4
ag5
ag4
aa(lp981
I9
aI4
ag5
ag4
aa(lp982
I9
aI4
ag5
ag4
aa(lp983
I9
aI4
ag5
ag5
aa(lp984
I9
aI4
ag5
ag5
aa(lp985
I9
aI4
ag5
ag5
aa(lp986
I9
aI4
ag5
ag5
aa(lp987
I9
aI4
ag5
ag5
aa(lp988
I9
aI4
ag5
ag5
aa(lp989
I9
aI4
ag5
ag5
aa(lp990
I9
aI4
ag5
ag5
aa(lp991
I9
aI4
ag5
ag5
aa(lp992
I9
aI4
ag5
ag5
aa(lp993
I9
aI4
ag5
ag5
aa(lp994
I9
aI4
ag5
ag5
aa(lp995
I9
aI4
ag5
ag5
aa(lp996
I9
aI4
ag5
ag5
aa(lp997
I9
aI4
ag5
ag5
aa(lp998
I9
aI4
ag5
ag5
aa(lp999
I9
aI4
ag5
ag5
aa(lp1000
I9
aI4
ag5
ag5
aa(lp1001
I9
aI4
ag5
ag5
aa(lp1002
I9
aI4
ag5
ag5
aa(lp1003
I9
aI4
ag5
ag5
aa(lp1004
I9
aI4
ag5
ag5
aa(lp1005
I9
aI4
ag5
ag5
aa(lp1006
I9
aI4
ag5
ag5
aa(lp1007
I9
aI4
ag5
ag5
aa(lp1008
I9
aI4
ag5
ag5
aa(lp1009
I9
aI4
ag5
ag5
aa(lp1010
I9
aI4
ag5
ag5
aa(lp1011
I9
aI4
ag5
ag5
aa(lp1012
I9
aI4
ag5
ag197
aa(lp1013
I9
aI4
ag5
ag197
aa(lp1014
I9
aI4
ag5
ag197
aa(lp1015
I9
aI4
ag5
ag197
aa(lp1016
I9
aI4
ag5
ag197
aa(lp1017
I9
aI4
ag5
ag5
aa(lp1018
I9
aI4
ag5
ag5
aa(lp1019
I9
aI4
ag5
ag5
aa(lp1020
I9
aI4
ag5
ag5
aa(lp1021
I9
aI4
ag5
ag5
aa(lp1022
I9
aI4
ag5
ag5
aa(lp1023
I9
aI4
ag5
ag5
aa(lp1024
I9
aI4
ag5
ag5
aa(lp1025
I9
aI4
ag5
ag5
aa(lp1026
I9
aI4
ag5
ag5
aa(lp1027
I9
aI4
ag5
ag5
aa(lp1028
I9
aI4
ag5
ag5
aa(lp1029
I9
aI4
ag5
ag5
aa(lp1030
I9
aI4
ag5
ag5
aa(lp1031
I9
aI4
ag5
ag5
aa(lp1032
I9
aI4
ag5
ag5
aa(lp1033
I9
aI4
ag5
ag5
aa(lp1034
I9
aI4
ag5
ag5
aa(lp1035
I9
aI4
ag5
ag5
aa(lp1036
I9
aI4
ag5
ag5
aa(lp1037
I9
aI4
ag5
ag5
aa(lp1038
I9
aI4
ag5
ag5
aa(lp1039
I9
aI4
ag5
ag5
aa(lp1040
I9
aI4
ag5
ag5
aa(lp1041
I9
aI4
ag5
ag5
aa(lp1042
I9
aI4
ag5
ag5
aa(lp1043
I9
aI4
ag5
ag5
aa(lp1044
I9
aI4
ag5
ag5
aa(lp1045
I9
aI4
ag5
ag5
aa(lp1046
I9
aI4
ag5
ag5
aa(lp1047
I9
aI4
ag5
ag5
aa(lp1048
I9
aI4
ag5
ag5
aa(lp1049
I9
aI4
ag5
ag5
aa(lp1050
I9
aI4
ag5
ag5
aa(lp1051
I9
aI4
ag5
ag5
aa(lp1052
I9
aI4
ag5
ag5
aa(lp1053
I9
aI4
ag5
ag5
aa(lp1054
I9
aI4
ag5
ag5
aa(lp1055
I9
aI4
ag5
ag5
aa(lp1056
I9
aI4
ag5
ag5
aa(lp1057
I9
aI4
ag5
ag5
aa(lp1058
I9
aI4
ag5
ag5
aa(lp1059
I9
aI4
ag5
ag5
aa(lp1060
I9
aI4
ag5
ag5
aa(lp1061
I9
aI4
ag5
ag5
aa(lp1062
I9
aI4
ag5
ag5
aa(lp1063
I9
aI4
ag5
ag5
aa(lp1064
I9
aI4
ag5
ag5
aa(lp1065
I9
aI4
ag5
ag5
aa(lp1066
I9
aI4
ag5
ag5
aa(lp1067
I9
aI4
ag5
ag5
aa(lp1068
I9
aI4
ag5
ag5
aa(lp1069
I9
aI4
ag5
ag5
aa(lp1070
I9
aI4
ag5
ag5
aa(lp1071
I9
aI4
ag5
ag5
aa(lp1072
I9
aI4
ag5
ag5
aa(lp1073
I9
aI4
ag5
ag5
aa(lp1074
I9
aI4
ag5
ag5
aa(lp1075
I9
aI4
ag5
ag5
aa(lp1076
I9
aI4
ag5
ag5
aa(lp1077
I9
aI4
ag5
ag5
aa(lp1078
I9
aI4
ag5
ag5
aa(lp1079
I9
aI4
ag5
ag5
aa(lp1080
I9
aI4
ag5
ag5
aa(lp1081
I9
aI4
ag5
ag5
aa(lp1082
I9
aI4
ag5
ag5
aa(lp1083
I9
aI4
ag5
ag5
aa(lp1084
I9
aI4
ag5
ag5
aa(lp1085
I9
aI4
ag5
ag5
aa(lp1086
I9
aI4
ag5
ag5
aa(lp1087
I9
aI4
ag5
ag5
aa(lp1088
I9
aI4
ag5
ag5
aa(lp1089
I9
aI4
ag5
ag5
aa(lp1090
I9
aI4
ag5
ag5
aa(lp1091
I9
aI4
ag5
ag5
aa(lp1092
I9
aI4
ag5
ag5
aa(lp1093
I9
aI4
ag5
ag5
aa(lp1094
I9
aI4
ag5
ag5
aa(lp1095
I9
aI4
ag5
ag5
aa(lp1096
I10
aI5
ag197
ag5
aa(lp1097
I10
aI5
ag197
ag5
aa(lp1098
I10
aI5
ag197
ag5
aa(lp1099
I10
aI5
ag197
ag5
aa(lp1100
I10
aI5
ag197
ag5
aa(lp1101
I10
aI5
ag197
ag5
aa(lp1102
I10
aI5
ag197
ag197
aa(lp1103
I10
aI5
ag197
ag197
aa(lp1104
I10
aI5
ag197
ag197
aa(lp1105
I10
aI5
ag197
ag197
aa(lp1106
I10
aI5
ag197
ag197
aa(lp1107
I10
aI5
ag197
ag197
aa(lp1108
I10
aI5
ag197
ag197
aa(lp1109
I10
aI5
ag197
ag197
aa(lp1110
I10
aI5
ag197
ag197
aa(lp1111
I10
aI5
ag197
ag197
aa(lp1112
I10
aI5
ag197
ag197
aa(lp1113
I10
aI5
ag197
ag197
aa(lp1114
I10
aI5
ag197
ag197
aa(lp1115
I10
aI5
ag197
ag197
aa(lp1116
I10
aI5
ag197
ag197
aa(lp1117
I10
aI5
ag197
ag197
aa(lp1118
I10
aI5
ag197
ag197
aa(lp1119
I10
aI5
ag197
ag197
aa(lp1120
I10
aI5
ag197
ag197
aa(lp1121
I10
aI5
ag197
ag197
aa(lp1122
I10
aI5
ag197
ag197
aa(lp1123
I10
aI5
ag197
ag197
aa(lp1124
I10
aI5
ag197
ag197
aa(lp1125
I10
aI5
ag197
ag197
aa(lp1126
I10
aI5
ag197
ag197
aa(lp1127
I10
aI5
ag197
ag197
aa(lp1128
I10
aI5
ag197
ag197
aa(lp1129
I10
aI5
ag197
ag197
aa(lp1130
I10
aI5
ag197
ag197
aa(lp1131
I10
aI5
ag197
ag197
aa(lp1132
I10
aI5
ag197
ag197
aa(lp1133
I10
aI5
ag197
ag197
aa(lp1134
I10
aI5
ag197
ag197
aa(lp1135
I10
aI5
ag197
ag197
aa(lp1136
I10
aI5
ag197
ag197
aa(lp1137
I10
aI5
ag197
ag197
aa(lp1138
I10
aI5
ag197
ag197
aa(lp1139
I10
aI5
ag197
ag197
aa(lp1140
I10
aI5
ag197
ag197
aa(lp1141
I10
aI5
ag197
ag197
aa(lp1142
I10
aI5
ag197
ag197
aa(lp1143
I10
aI5
ag197
ag197
aa(lp1144
I10
aI5
ag197
ag197
aa(lp1145
I10
aI5
ag197
ag197
aa(lp1146
I10
aI5
ag197
ag197
aa(lp1147
I10
aI5
ag197
ag197
aa(lp1148
I10
aI5
ag197
ag197
aa(lp1149
I10
aI5
ag197
ag197
aa(lp1150
I10
aI5
ag197
ag197
aa(lp1151
I10
aI5
ag197
ag197
aa(lp1152
I10
aI5
ag197
ag197
aa(lp1153
I10
aI5
ag197
ag197
aa(lp1154
I10
aI5
ag197
ag197
aa(lp1155
I10
aI5
ag197
ag197
aa(lp1156
I10
aI5
ag197
ag197
aa(lp1157
I10
aI5
ag197
ag197
aa(lp1158
I10
aI5
ag197
ag197
aa(lp1159
I10
aI5
ag197
ag197
aa(lp1160
I10
aI5
ag197
ag197
aa(lp1161
I10
aI5
ag197
ag197
aa(lp1162
I10
aI5
ag197
ag197
aa(lp1163
I10
aI5
ag197
ag197
aa(lp1164
I10
aI5
ag197
ag197
aa(lp1165
I10
aI5
ag197
ag197
aa(lp1166
I10
aI5
ag197
ag197
aa(lp1167
I10
aI5
ag197
ag197
aa(lp1168
I11
aI1
ag4
ag5
aa(lp1169
I11
aI1
ag4
ag5
aa(lp1170
I11
aI1
ag4
ag5
aa(lp1171
I11
aI1
ag4
ag5
aa(lp1172
I11
aI1
ag4
ag5
aa(lp1173
I11
aI1
ag4
ag5
aa(lp1174
I11
aI1
ag4
ag5
aa(lp1175
I11
aI1
ag4
ag5
aa(lp1176
I11
aI1
ag4
ag5
aa(lp1177
I11
aI1
ag4
ag5
aa(lp1178
I11
aI1
ag4
ag5
aa(lp1179
I11
aI1
ag4
ag5
aa(lp1180
I11
aI1
ag4
ag5
aa(lp1181
I11
aI1
ag4
ag5
aa(lp1182
I11
aI1
ag4
ag5
aa(lp1183
I11
aI1
ag4
ag5
aa(lp1184
I11
aI1
ag4
ag5
aa(lp1185
I11
aI1
ag4
ag5
aa(lp1186
I11
aI1
ag4
ag5
aa(lp1187
I11
aI1
ag4
ag5
aa(lp1188
I11
aI1
ag4
ag5
aa(lp1189
I11
aI1
ag4
ag5
aa(lp1190
I11
aI1
ag4
ag5
aa(lp1191
I11
aI1
ag4
ag5
aa(lp1192
I11
aI1
ag4
ag5
aa(lp1193
I11
aI1
ag4
ag5
aa(lp1194
I11
aI1
ag4
ag5
aa(lp1195
I11
aI1
ag4
ag5
aa(lp1196
I11
aI1
ag4
ag5
aa(lp1197
I11
aI1
ag4
ag5
aa(lp1198
I11
aI1
ag4
ag5
aa(lp1199
I11
aI1
ag4
ag5
aa(lp1200
I11
aI1
ag4
ag4
aa(lp1201
I11
aI1
ag4
ag4
aa(lp1202
I11
aI1
ag4
ag4
aa(lp1203
I11
aI1
ag4
ag4
aa(lp1204
I11
aI1
ag4
ag5
aa(lp1205
I11
aI1
ag4
ag5
aa(lp1206
I11
aI1
ag4
ag5
aa(lp1207
I11
aI1
ag4
ag5
aa(lp1208
I11
aI1
ag4
ag5
aa(lp1209
I11
aI1
ag4
ag5
aa(lp1210
I11
aI1
ag4
ag5
aa(lp1211
I11
aI1
ag4
ag5
aa(lp1212
I11
aI1
ag4
ag5
aa(lp1213
I11
aI1
ag4
ag5
aa(lp1214
I11
aI1
ag4
ag5
aa(lp1215
I11
aI1
ag4
ag5
aa(lp1216
I11
aI1
ag4
ag5
aa(lp1217
I11
aI1
ag4
ag5
aa(lp1218
I11
aI1
ag4
ag5
aa(lp1219
I11
aI1
ag4
ag5
aa(lp1220
I11
aI1
ag4
ag5
aa(lp1221
I11
aI1
ag4
ag5
aa(lp1222
I11
aI1
ag4
ag5
aa(lp1223
I11
aI1
ag4
ag5
aa(lp1224
I11
aI1
ag4
ag5
aa(lp1225
I11
aI1
ag4
ag5
aa(lp1226
I11
aI1
ag4
ag5
aa(lp1227
I11
aI1
ag4
ag5
aa(lp1228
I11
aI1
ag4
ag5
aa(lp1229
I11
aI1
ag4
ag5
aa(lp1230
I11
aI1
ag4
ag5
aa(lp1231
I11
aI1
ag4
ag5
aa(lp1232
I11
aI1
ag4
ag5
aa(lp1233
I11
aI1
ag4
ag5
aa(lp1234
I11
aI1
ag4
ag5
aa(lp1235
I11
aI1
ag4
ag5
aa(lp1236
I11
aI1
ag4
ag5
aa(lp1237
I11
aI1
ag4
ag5
aa(lp1238
I11
aI1
ag4
ag5
aa(lp1239
I11
aI1
ag4
ag5
aa(lp1240
I11
aI1
ag4
ag5
aa(lp1241
I11
aI1
ag4
ag5
aa(lp1242
I11
aI1
ag4
ag5
aa(lp1243
I11
aI1
ag4
ag5
aa(lp1244
I11
aI1
ag4
ag5
aa(lp1245
I11
aI1
ag4
ag5
aa(lp1246
I11
aI1
ag4
ag5
aa(lp1247
I11
aI1
ag4
ag5
aa(lp1248
I11
aI1
ag4
ag5
aa(lp1249
I11
aI1
ag4
ag5
aa(lp1250
I11
aI1
ag4
ag5
aa(lp1251
I11
aI1
ag4
ag5
aa(lp1252
I11
aI1
ag4
ag5
aa(lp1253
I11
aI1
ag4
ag5
aa(lp1254
I11
aI1
ag4
ag5
aa(lp1255
I11
aI1
ag4
ag5
aa(lp1256
I11
aI1
ag4
ag5
aa(lp1257
I11
aI1
ag4
ag5
aa(lp1258
I11
aI1
ag4
ag5
aa(lp1259
I11
aI1
ag4
ag5
aa(lp1260
I11
aI1
ag4
ag5
aa(lp1261
I11
aI1
ag4
ag5
aa(lp1262
I11
aI1
ag4
ag5
aa(lp1263
I11
aI1
ag4
ag5
aa(lp1264
I12
aI7
ag5
ag5
aa(lp1265
I12
aI7
ag5
ag5
aa(lp1266
I12
aI7
ag5
ag5
aa(lp1267
I12
aI7
ag5
ag5
aa(lp1268
I12
aI7
ag5
ag5
aa(lp1269
I12
aI7
ag5
ag5
aa(lp1270
I12
aI7
ag5
ag5
aa(lp1271
I12
aI7
ag5
ag5
aa(lp1272
I12
aI7
ag5
ag5
aa(lp1273
I12
aI7
ag5
ag5
aa(lp1274
I12
aI7
ag5
ag5
aa(lp1275
I12
aI7
ag5
ag5
aa(lp1276
I12
aI7
ag5
ag5
aa(lp1277
I12
aI7
ag5
ag5
aa(lp1278
I12
aI7
ag5
ag4
aa(lp1279
I12
aI7
ag5
ag4
aa(lp1280
I12
aI7
ag5
ag4
aa(lp1281
I12
aI7
ag5
ag5
aa(lp1282
I12
aI7
ag5
ag5
aa(lp1283
I12
aI7
ag5
ag5
aa(lp1284
I12
aI7
ag5
ag5
aa(lp1285
I12
aI7
ag5
ag5
aa(lp1286
I12
aI7
ag5
ag5
aa(lp1287
I12
aI7
ag5
ag5
aa(lp1288
I12
aI7
ag5
ag5
aa(lp1289
I12
aI7
ag5
ag5
aa(lp1290
I12
aI7
ag5
ag5
aa(lp1291
I12
aI7
ag5
ag5
aa(lp1292
I12
aI7
ag5
ag5
aa(lp1293
I12
aI7
ag5
ag5
aa(lp1294
I12
aI7
ag5
ag5
aa(lp1295
I12
aI7
ag5
ag5
aa(lp1296
I12
aI7
ag5
ag5
aa(lp1297
I12
aI7
ag5
ag5
aa(lp1298
I12
aI7
ag5
ag5
aa(lp1299
I12
aI7
ag5
ag5
aa(lp1300
I12
aI7
ag5
ag5
aa(lp1301
I12
aI7
ag5
ag5
aa(lp1302
I12
aI7
ag5
ag5
aa(lp1303
I12
aI7
ag5
ag5
aa(lp1304
I12
aI7
ag5
ag5
aa(lp1305
I12
aI7
ag5
ag5
aa(lp1306
I12
aI7
ag5
ag5
aa(lp1307
I12
aI7
ag5
ag5
aa(lp1308
I12
aI7
ag5
ag5
aa(lp1309
I12
aI7
ag5
ag5
aa(lp1310
I12
aI7
ag5
ag5
aa(lp1311
I12
aI7
ag5
ag5
aa(lp1312
I12
aI7
ag5
ag4
aa(lp1313
I12
aI7
ag5
ag4
aa(lp1314
I12
aI7
ag5
ag4
aa(lp1315
I12
aI7
ag5
ag4
aa(lp1316
I12
aI7
ag5
ag4
aa(lp1317
I12
aI7
ag5
ag5
aa(lp1318
I12
aI7
ag5
ag5
aa(lp1319
I12
aI7
ag5
ag5
aa(lp1320
I12
aI7
ag5
ag5
aa(lp1321
I12
aI7
ag5
ag5
aa(lp1322
I12
aI7
ag5
ag5
aa(lp1323
I12
aI7
ag5
ag5
aa(lp1324
I12
aI7
ag5
ag5
aa(lp1325
I12
aI7
ag5
ag5
aa(lp1326
I12
aI7
ag5
ag5
aa(lp1327
I12
aI7
ag5
ag5
aa(lp1328
I12
aI7
ag5
ag5
aa(lp1329
I12
aI7
ag5
ag5
aa(lp1330
I12
aI7
ag5
ag5
aa(lp1331
I12
aI7
ag5
ag5
aa(lp1332
I12
aI7
ag5
ag5
aa(lp1333
I12
aI7
ag5
ag5
aa(lp1334
I12
aI7
ag5
ag4
aa(lp1335
I12
aI7
ag5
ag4
aa(lp1336
I12
aI7
ag5
ag4
aa(lp1337
I12
aI7
ag5
ag4
aa(lp1338
I12
aI7
ag5
ag4
aa(lp1339
I12
aI7
ag5
ag4
aa(lp1340
I12
aI7
ag5
ag4
aa(lp1341
I12
aI7
ag5
ag4
aa(lp1342
I12
aI7
ag5
ag4
aa(lp1343
I12
aI7
ag5
ag4
aa(lp1344
I12
aI7
ag5
ag4
aa(lp1345
I12
aI7
ag5
ag4
aa(lp1346
I12
aI7
ag5
ag4
aa(lp1347
I12
aI7
ag5
ag4
aa(lp1348
I12
aI7
ag5
ag4
aa(lp1349
I12
aI7
ag5
ag4
aa(lp1350
I12
aI7
ag5
ag4
aa(lp1351
I12
aI7
ag5
ag4
aa(lp1352
I12
aI7
ag5
ag4
aa(lp1353
I12
aI7
ag5
ag4
aa(lp1354
I12
aI7
ag5
ag5
aa(lp1355
I12
aI7
ag5
ag5
aa(lp1356
I12
aI7
ag5
ag5
aa(lp1357
I12
aI7
ag5
ag5
aa(lp1358
I12
aI7
ag5
ag5
aa(lp1359
I12
aI7
ag5
ag5
aa(lp1360
I12
aI7
ag5
ag4
aa(lp1361
I12
aI7
ag5
ag4
aa(lp1362
I12
aI7
ag5
ag4
aa(lp1363
I12
aI7
ag5
ag4
aa(lp1364
I12
aI7
ag5
ag4
aa(lp1365
I12
aI7
ag5
ag4
aa(lp1366
I12
aI7
ag5
ag4
aa(lp1367
I12
aI7
ag5
ag4
aa(lp1368
I12
aI7
ag5
ag4
aa(lp1369
I12
aI7
ag5
ag5
aa(lp1370
I12
aI7
ag5
ag197
aa(lp1371
I12
aI7
ag5
ag197
aa(lp1372
I12
aI7
ag5
ag197
aa(lp1373
I12
aI7
ag5
ag197
aa(lp1374
I12
aI7
ag5
ag5
aa(lp1375
I12
aI7
ag5
ag5
aa(lp1376
I12
aI7
ag5
ag5
aa(lp1377
I12
aI7
ag5
ag5
aa(lp1378
I12
aI7
ag5
ag5
aa(lp1379
I12
aI7
ag5
ag5
aa(lp1380
I12
aI7
ag5
ag5
aa(lp1381
I12
aI7
ag5
ag5
aa(lp1382
I12
aI7
ag5
ag5
aa(lp1383
I12
aI7
ag5
ag5
aa(lp1384
I12
aI7
ag5
ag5
aa(lp1385
I12
aI7
ag5
ag5
aa(lp1386
I12
aI7
ag5
ag5
aa(lp1387
I12
aI7
ag5
ag5
aa(lp1388
I12
aI7
ag5
ag5
aa(lp1389
I12
aI7
ag5
ag5
aa(lp1390
I12
aI7
ag5
ag5
aa(lp1391
I12
aI7
ag5
ag5
aa(lp1392
I12
aI7
ag5
ag5
aa(lp1393
I12
aI7
ag5
ag5
aa(lp1394
I12
aI7
ag5
ag5
aa(lp1395
I12
aI7
ag5
ag5
aa(lp1396
I12
aI7
ag5
ag5
aa(lp1397
I12
aI7
ag5
ag5
aa(lp1398
I12
aI7
ag5
ag5
aa(lp1399
I12
aI7
ag5
ag5
aa(lp1400
I12
aI7
ag5
ag5
aa(lp1401
I12
aI7
ag5
ag5
aa(lp1402
I12
aI7
ag5
ag5
aa(lp1403
I12
aI7
ag5
ag5
aa(lp1404
I13
aI2
ag197
ag197
aa(lp1405
I13
aI2
ag197
ag197
aa(lp1406
I13
aI2
ag197
ag197
aa(lp1407
I13
aI2
ag197
ag197
aa(lp1408
I13
aI2
ag197
ag197
aa(lp1409
I13
aI2
ag197
ag197
aa(lp1410
I13
aI2
ag197
ag197
aa(lp1411
I13
aI2
ag197
ag5
aa(lp1412
I13
aI2
ag197
ag5
aa(lp1413
I13
aI2
ag197
ag5
aa(lp1414
I13
aI2
ag197
ag5
aa(lp1415
I13
aI2
ag197
ag5
aa(lp1416
I13
aI2
ag197
ag5
aa(lp1417
I13
aI2
ag197
ag5
aa(lp1418
I13
aI2
ag197
ag197
aa(lp1419
I13
aI2
ag197
ag197
aa(lp1420
I13
aI2
ag197
ag197
aa(lp1421
I13
aI2
ag197
ag197
aa(lp1422
I13
aI2
ag197
ag197
aa(lp1423
I13
aI2
ag197
ag197
aa(lp1424
I13
aI2
ag197
ag197
aa(lp1425
I13
aI2
ag197
ag197
aa(lp1426
I13
aI2
ag197
ag197
aa(lp1427
I13
aI2
ag197
ag197
aa(lp1428
I13
aI2
ag197
ag197
aa(lp1429
I13
aI2
ag197
ag197
aa(lp1430
I13
aI2
ag197
ag197
aa(lp1431
I13
aI2
ag197
ag197
aa(lp1432
I13
aI2
ag197
ag197
aa(lp1433
I13
aI2
ag197
ag197
aa(lp1434
I13
aI2
ag197
ag197
aa(lp1435
I13
aI2
ag197
ag197
aa(lp1436
I13
aI2
ag197
ag197
aa(lp1437
I13
aI2
ag197
ag197
aa(lp1438
I13
aI2
ag197
ag197
aa(lp1439
I13
aI2
ag197
ag197
aa(lp1440
I13
aI2
ag197
ag197
aa(lp1441
I13
aI2
ag197
ag197
aa(lp1442
I13
aI2
ag197
ag197
aa(lp1443
I13
aI2
ag197
ag197
aa(lp1444
I13
aI2
ag197
ag197
aa(lp1445
I13
aI2
ag197
ag197
aa(lp1446
I13
aI2
ag197
ag197
aa(lp1447
I13
aI2
ag197
ag197
aa(lp1448
I13
aI2
ag197
ag197
aa(lp1449
I13
aI2
ag197
ag197
aa(lp1450
I13
aI2
ag197
ag197
aa(lp1451
I13
aI2
ag197
ag197
aa(lp1452
I13
aI2
ag197
ag197
aa(lp1453
I13
aI2
ag197
ag197
aa(lp1454
I13
aI2
ag197
ag197
aa(lp1455
I13
aI2
ag197
ag197
aa(lp1456
I14
aI3
ag197
ag5
aa(lp1457
I14
aI3
ag197
ag5
aa(lp1458
I14
aI3
ag197
ag5
aa(lp1459
I14
aI3
ag197
ag5
aa(lp1460
I14
aI3
ag197
ag4
aa(lp1461
I14
aI3
ag197
ag4
aa(lp1462
I14
aI3
ag197
ag4
aa(lp1463
I14
aI3
ag197
ag4
aa(lp1464
I14
aI3
ag197
ag197
aa(lp1465
I14
aI3
ag197
ag197
aa(lp1466
I14
aI3
ag197
ag197
aa(lp1467
I14
aI3
ag197
ag197
aa(lp1468
I14
aI3
ag197
ag197
aa(lp1469
I14
aI3
ag197
ag197
aa(lp1470
I14
aI3
ag197
ag197
aa(lp1471
I14
aI3
ag197
ag197
aa(lp1472
I14
aI3
ag197
ag4
aa(lp1473
I14
aI3
ag197
ag4
aa(lp1474
I14
aI3
ag197
ag4
aa(lp1475
I14
aI3
ag197
ag4
aa(lp1476
I14
aI3
ag197
ag197
aa(lp1477
I14
aI3
ag197
ag197
aa(lp1478
I14
aI3
ag197
ag197
aa(lp1479
I14
aI3
ag197
ag197
aa(lp1480
I14
aI3
ag197
ag197
aa(lp1481
I14
aI3
ag197
ag197
aa(lp1482
I14
aI3
ag197
ag197
aa(lp1483
I14
aI3
ag197
ag197
aa(lp1484
I14
aI3
ag197
ag197
aa(lp1485
I14
aI3
ag197
ag197
aa(lp1486
I14
aI3
ag197
ag197
aa(lp1487
I14
aI3
ag197
ag197
aa(lp1488
I14
aI3
ag197
ag197
aa(lp1489
I14
aI3
ag197
ag197
aa(lp1490
I14
aI3
ag197
ag197
aa(lp1491
I14
aI3
ag197
ag197
aa(lp1492
I14
aI3
ag197
ag197
aa(lp1493
I14
aI3
ag197
ag197
aa(lp1494
I14
aI3
ag197
ag197
aa(lp1495
I14
aI3
ag197
ag197
aa(lp1496
I14
aI3
ag197
ag197
aa(lp1497
I14
aI3
ag197
ag197
aa(lp1498
I14
aI3
ag197
ag197
aa(lp1499
I14
aI3
ag197
ag197
aa(lp1500
I14
aI3
ag197
ag197
aa(lp1501
I14
aI3
ag197
ag197
aa(lp1502
I14
aI3
ag197
ag197
aa(lp1503
I14
aI3
ag197
ag197
aa(lp1504
I14
aI3
ag197
ag197
aa(lp1505
I14
aI3
ag197
ag197
aa(lp1506
I14
aI3
ag197
ag197
aa(lp1507
I14
aI3
ag197
ag197
aa(lp1508
I14
aI3
ag197
ag197
aa(lp1509
I14
aI3
ag197
ag197
aa(lp1510
I14
aI3
ag197
ag197
aa(lp1511
I14
aI3
ag197
ag197
aa(lp1512
I14
aI3
ag197
ag197
aa(lp1513
I14
aI3
ag197
ag197
aa(lp1514
I14
aI3
ag197
ag197
aa(lp1515
I14
aI3
ag197
ag197
aa(lp1516
I15
aI6
ag5
ag5
aa(lp1517
I15
aI6
ag5
ag5
aa(lp1518
I15
aI6
ag5
ag5
aa(lp1519
I15
aI6
ag5
ag5
aa(lp1520
I15
aI6
ag5
ag5
aa(lp1521
I15
aI6
ag5
ag5
aa(lp1522
I15
aI6
ag5
ag5
aa(lp1523
I15
aI6
ag5
ag197
aa(lp1524
I15
aI6
ag5
ag197
aa(lp1525
I15
aI6
ag5
ag197
aa(lp1526
I15
aI6
ag5
ag197
aa(lp1527
I15
aI6
ag5
ag197
aa(lp1528
I15
aI6
ag5
ag197
aa(lp1529
I15
aI6
ag5
ag197
aa(lp1530
I15
aI6
ag5
ag197
aa(lp1531
I15
aI6
ag5
ag197
aa(lp1532
I15
aI6
ag5
ag197
aa(lp1533
I15
aI6
ag5
ag4
aa(lp1534
I15
aI6
ag5
ag4
aa(lp1535
I15
aI6
ag5
ag4
aa(lp1536
I15
aI6
ag5
ag4
aa(lp1537
I15
aI6
ag5
ag4
aa(lp1538
I15
aI6
ag5
ag4
aa(lp1539
I15
aI6
ag5
ag4
aa(lp1540
I15
aI6
ag5
ag4
aa(lp1541
I15
aI6
ag5
ag4
aa(lp1542
I15
aI6
ag5
ag4
aa(lp1543
I15
aI6
ag5
ag4
aa(lp1544
I15
aI6
ag5
ag4
aa(lp1545
I15
aI6
ag5
ag4
aa(lp1546
I15
aI6
ag5
ag4
aa(lp1547
I15
aI6
ag5
ag4
aa(lp1548
I15
aI6
ag5
ag4
aa(lp1549
I15
aI6
ag5
ag4
aa(lp1550
I15
aI6
ag5
ag4
aa(lp1551
I15
aI6
ag5
ag4
aa(lp1552
I15
aI6
ag5
ag4
aa(lp1553
I15
aI6
ag5
ag4
aa(lp1554
I15
aI6
ag5
ag4
aa(lp1555
I15
aI6
ag5
ag4
aa(lp1556
I15
aI6
ag5
ag5
aa(lp1557
I15
aI6
ag5
ag5
aa(lp1558
I15
aI6
ag5
ag5
aa(lp1559
I15
aI6
ag5
ag5
aa(lp1560
I15
aI6
ag5
ag5
aa(lp1561
I15
aI6
ag5
ag5
aa(lp1562
I15
aI6
ag5
ag5
aa(lp1563
I15
aI6
ag5
ag5
aa(lp1564
I15
aI6
ag5
ag5
aa(lp1565
I15
aI6
ag5
ag5
aa(lp1566
I15
aI6
ag5
ag5
aa(lp1567
I15
aI6
ag5
ag5
aa(lp1568
I15
aI6
ag5
ag5
aa(lp1569
I15
aI6
ag5
ag5
aa(lp1570
I15
aI6
ag5
ag5
aa(lp1571
I15
aI6
ag5
ag5
aa(lp1572
I15
aI6
ag5
ag5
aa(lp1573
I15
aI6
ag5
ag5
aa(lp1574
I15
aI6
ag5
ag5
aa(lp1575
I15
aI6
ag5
ag5
aa(lp1576
I15
aI6
ag5
ag5
aa(lp1577
I15
aI6
ag5
ag5
aa(lp1578
I15
aI6
ag5
ag5
aa(lp1579
I15
aI6
ag5
ag5
aa(lp1580
I15
aI6
ag5
ag5
aa(lp1581
I15
aI6
ag5
ag5
aa(lp1582
I15
aI6
ag5
ag5
aa(lp1583
I15
aI6
ag5
ag5
aa(lp1584
I15
aI6
ag5
ag5
aa(lp1585
I15
aI6
ag5
ag5
aa(lp1586
I15
aI6
ag5
ag5
aa(lp1587
I15
aI6
ag5
ag5
aa(lp1588
I15
aI6
ag5
ag5
aa(lp1589
I15
aI6
ag5
ag5
aa(lp1590
I15
aI6
ag5
ag5
aa(lp1591
I15
aI6
ag5
ag5
aa(lp1592
I15
aI6
ag5
ag5
aa(lp1593
I15
aI6
ag5
ag5
aa(lp1594
I15
aI6
ag5
ag5
aa(lp1595
I15
aI6
ag5
ag5
aa(lp1596
I15
aI6
ag5
ag5
aa(lp1597
I15
aI6
ag5
ag5
aa(lp1598
I15
aI6
ag5
ag5
aa(lp1599
I15
aI6
ag5
ag5
aa(lp1600
I15
aI6
ag5
ag5
aa(lp1601
I15
aI6
ag5
ag5
aa(lp1602
I15
aI6
ag5
ag5
aa(lp1603
I15
aI6
ag5
ag5
aa(lp1604
I15
aI6
ag5
ag5
aa(lp1605
I15
aI6
ag5
ag5
aa(lp1606
I15
aI6
ag5
ag5
aa(lp1607
I15
aI6
ag5
ag5
aa(lp1608
I15
aI6
ag5
ag5
aa(lp1609
I15
aI6
ag5
ag5
aa(lp1610
I15
aI6
ag5
ag5
aa(lp1611
I15
aI6
ag5
ag4
aa(lp1612
I15
aI6
ag5
ag4
aa(lp1613
I15
aI6
ag5
ag4
aa(lp1614
I15
aI6
ag5
ag4
aa(lp1615
I15
aI6
ag5
ag4
aa(lp1616
I15
aI6
ag5
ag4
aa(lp1617
I15
aI6
ag5
ag4
aa(lp1618
I15
aI6
ag5
ag4
aa(lp1619
I15
aI6
ag5
ag4
aa(lp1620
I15
aI6
ag5
ag4
aa(lp1621
I15
aI6
ag5
ag4
aa(lp1622
I15
aI6
ag5
ag4
aa(lp1623
I15
aI6
ag5
ag4
aa(lp1624
I15
aI6
ag5
ag4
aa(lp1625
I15
aI6
ag5
ag4
aa(lp1626
I15
aI6
ag5
ag4
aa(lp1627
I15
aI6
ag5
ag4
aa(lp1628
I15
aI6
ag5
ag4
aa(lp1629
I15
aI6
ag5
ag4
aa(lp1630
I15
aI6
ag5
ag4
aa(lp1631
I15
aI6
ag5
ag5
aa(lp1632
I15
aI6
ag5
ag5
aa(lp1633
I15
aI6
ag5
ag5
aa(lp1634
I15
aI6
ag5
ag5
aa(lp1635
I15
aI6
ag5
ag5
aa(lp1636
I15
aI6
ag5
ag5
aa(lp1637
I15
aI6
ag5
ag5
aa(lp1638
I15
aI6
ag5
ag5
aa(lp1639
I15
aI6
ag5
ag5
aa(lp1640
I15
aI6
ag5
ag5
aa(lp1641
I15
aI6
ag5
ag5
aa(lp1642
I15
aI6
ag5
ag5
aa(lp1643
I15
aI6
ag5
ag5
aa(lp1644
I15
aI6
ag5
ag5
aa(lp1645
I15
aI6
ag5
ag5
aa(lp1646
I15
aI6
ag5
ag5
aa(lp1647
I15
aI6
ag5
ag5
aa(lp1648
I15
aI6
ag5
ag5
aa(lp1649
I15
aI6
ag5
ag5
aa(lp1650
I15
aI6
ag5
ag5
aa(lp1651
I15
aI6
ag5
ag5
aa(lp1652
I15
aI6
ag5
ag5
aa(lp1653
I15
aI6
ag5
ag5
aa(lp1654
I15
aI6
ag5
ag5
aa(lp1655
I15
aI6
ag5
ag5
aa(lp1656
I16
aI8
ag4
ag5
aa(lp1657
I16
aI8
ag4
ag5
aa(lp1658
I16
aI8
ag4
ag5
aa(lp1659
I16
aI8
ag4
ag5
aa(lp1660
I16
aI8
ag4
ag5
aa(lp1661
I16
aI8
ag4
ag5
aa(lp1662
I16
aI8
ag4
ag5
aa(lp1663
I16
aI8
ag4
ag5
aa(lp1664
I16
aI8
ag4
ag5
aa(lp1665
I16
aI8
ag4
ag5
aa(lp1666
I16
aI8
ag4
ag5
aa(lp1667
I16
aI8
ag4
ag5
aa(lp1668
I16
aI8
ag4
ag5
aa(lp1669
I16
aI8
ag4
ag5
aa(lp1670
I16
aI8
ag4
ag5
aa(lp1671
I16
aI8
ag4
ag5
aa(lp1672
I16
aI8
ag4
ag5
aa(lp1673
I16
aI8
ag4
ag5
aa(lp1674
I16
aI8
ag4
ag5
aa(lp1675
I16
aI8
ag4
ag5
aa(lp1676
I16
aI8
ag4
ag5
aa(lp1677
I16
aI8
ag4
ag5
aa(lp1678
I16
aI8
ag4
ag5
aa(lp1679
I16
aI8
ag4
ag5
aa(lp1680
I16
aI8
ag4
ag5
aa(lp1681
I16
aI8
ag4
ag5
aa(lp1682
I16
aI8
ag4
ag5
aa(lp1683
I16
aI8
ag4
ag5
aa(lp1684
I16
aI8
ag4
ag5
aa(lp1685
I16
aI8
ag4
ag5
aa(lp1686
I16
aI8
ag4
ag5
aa(lp1687
I16
aI8
ag4
ag5
aa(lp1688
I16
aI8
ag4
ag5
aa(lp1689
I16
aI8
ag4
ag5
aa(lp1690
I16
aI8
ag4
ag5
aa(lp1691
I16
aI8
ag4
ag5
aa(lp1692
I16
aI8
ag4
ag5
aa(lp1693
I16
aI8
ag4
ag5
aa(lp1694
I16
aI8
ag4
ag5
aa(lp1695
I16
aI8
ag4
ag5
aa(lp1696
I16
aI8
ag4
ag5
aa(lp1697
I16
aI8
ag4
ag5
aa(lp1698
I16
aI8
ag4
ag5
aa(lp1699
I16
aI8
ag4
ag5
aa(lp1700
I16
aI8
ag4
ag5
aa(lp1701
I16
aI8
ag4
ag5
aa(lp1702
I16
aI8
ag4
ag5
aa(lp1703
I16
aI8
ag4
ag5
aa(lp1704
I16
aI8
ag4
ag5
aa(lp1705
I16
aI8
ag4
ag5
aa(lp1706
I16
aI8
ag4
ag5
aa(lp1707
I16
aI8
ag4
ag5
aa(lp1708
I16
aI8
ag4
ag5
aa(lp1709
I16
aI8
ag4
ag5
aa(lp1710
I16
aI8
ag4
ag5
aa(lp1711
I16
aI8
ag4
ag5
aa(lp1712
I16
aI8
ag4
ag5
aa(lp1713
I16
aI8
ag4
ag5
aa(lp1714
I16
aI8
ag4
ag5
aa(lp1715
I16
aI8
ag4
ag5
aa(lp1716
I16
aI8
ag4
ag5
aa(lp1717
I16
aI8
ag4
ag5
aa(lp1718
I16
aI8
ag4
ag5
aa(lp1719
I16
aI8
ag4
ag5
aa(lp1720
I16
aI8
ag4
ag5
aa(lp1721
I16
aI8
ag4
ag5
aa(lp1722
I16
aI8
ag4
ag5
aa(lp1723
I16
aI8
ag4
ag5
aa(lp1724
I16
aI8
ag4
ag5
aa(lp1725
I16
aI8
ag4
ag5
aa(lp1726
I16
aI8
ag4
ag5
aa(lp1727
I16
aI8
ag4
ag5
aa(lp1728
I16
aI8
ag4
ag5
aa(lp1729
I16
aI8
ag4
ag5
aa(lp1730
I16
aI8
ag4
ag5
aa(lp1731
I16
aI8
ag4
ag5
aa(lp1732
I16
aI8
ag4
ag5
aa(lp1733
I16
aI8
ag4
ag5
aa(lp1734
I16
aI8
ag4
ag5
aa(lp1735
I16
aI8
ag4
ag5
aa(lp1736
I16
aI8
ag4
ag5
aa(lp1737
I16
aI8
ag4
ag5
aa(lp1738
I16
aI8
ag4
ag5
aa(lp1739
I16
aI8
ag4
ag5
aa(lp1740
I16
aI8
ag4
ag5
aa(lp1741
I16
aI8
ag4
ag5
aa(lp1742
I16
aI8
ag4
ag5
aa(lp1743
I16
aI8
ag4
ag5
aa(lp1744
I16
aI8
ag4
ag5
aa(lp1745
I16
aI8
ag4
ag5
aa(lp1746
I16
aI8
ag4
ag5
aa(lp1747
I16
aI8
ag4
ag5
aa(lp1748
I16
aI8
ag4
ag5
aa(lp1749
I16
aI8
ag4
ag5
aa(lp1750
I16
aI8
ag4
ag5
aa(lp1751
I16
aI8
ag4
ag5
aa(lp1752
I16
aI8
ag4
ag5
aa(lp1753
I16
aI8
ag4
ag5
aa(lp1754
I17
aI8
ag4
ag5
aa(lp1755
I17
aI8
ag4
ag197
aa(lp1756
I17
aI8
ag4
ag5
aa(lp1757
I17
aI8
ag4
ag5
aa(lp1758
I17
aI8
ag4
ag5
aa(lp1759
I17
aI8
ag4
ag5
aa(lp1760
I17
aI8
ag4
ag5
aa(lp1761
I17
aI8
ag4
ag5
aa(lp1762
I17
aI8
ag4
ag5
aa(lp1763
I17
aI8
ag4
ag5
aa(lp1764
I17
aI8
ag4
ag5
aa(lp1765
I17
aI8
ag4
ag5
aa(lp1766
I17
aI8
ag4
ag5
aa(lp1767
I17
aI8
ag4
ag4
aa(lp1768
I17
aI8
ag4
ag4
aa(lp1769
I17
aI8
ag4
ag4
aa(lp1770
I17
aI8
ag4
ag4
aa(lp1771
I17
aI8
ag4
ag4
aa(lp1772
I17
aI8
ag4
ag4
aa(lp1773
I17
aI8
ag4
ag4
aa(lp1774
I17
aI8
ag4
ag4
aa(lp1775
I17
aI8
ag4
ag4
aa(lp1776
I17
aI8
ag4
ag4
aa(lp1777
I17
aI8
ag4
ag4
aa(lp1778
I17
aI8
ag4
ag4
aa(lp1779
I17
aI8
ag4
ag4
aa(lp1780
I17
aI8
ag4
ag4
aa(lp1781
I17
aI8
ag4
ag4
aa(lp1782
I17
aI8
ag4
ag4
aa(lp1783
I17
aI8
ag4
ag4
aa(lp1784
I17
aI8
ag4
ag4
aa(lp1785
I17
aI8
ag4
ag4
aa(lp1786
I17
aI8
ag4
ag4
aa(lp1787
I17
aI8
ag4
ag4
aa(lp1788
I17
aI8
ag4
ag4
aa(lp1789
I17
aI8
ag4
ag4
aa(lp1790
I17
aI8
ag4
ag4
aa(lp1791
I17
aI8
ag4
ag4
aa(lp1792
I17
aI8
ag4
ag4
aa(lp1793
I17
aI8
ag4
ag4
aa(lp1794
I17
aI8
ag4
ag4
aa(lp1795
I17
aI8
ag4
ag4
aa(lp1796
I17
aI8
ag4
ag4
aa(lp1797
I17
aI8
ag4
ag4
aa(lp1798
I17
aI8
ag4
ag4
aa(lp1799
I17
aI8
ag4
ag4
aa(lp1800
I17
aI8
ag4
ag4
aa(lp1801
I17
aI8
ag4
ag4
aa(lp1802
I17
aI8
ag4
ag4
aa(lp1803
I17
aI8
ag4
ag4
aa(lp1804
I17
aI8
ag4
ag4
aa(lp1805
I17
aI8
ag4
ag4
aa(lp1806
I17
aI8
ag4
ag4
aa(lp1807
I17
aI8
ag4
ag4
aa(lp1808
I17
aI8
ag4
ag4
aa(lp1809
I17
aI8
ag4
ag4
aa(lp1810
I17
aI8
ag4
ag4
aa(lp1811
I17
aI8
ag4
ag4
aa(lp1812
I17
aI8
ag4
ag4
aa(lp1813
I17
aI8
ag4
ag4
aa(lp1814
I17
aI8
ag4
ag4
aa(lp1815
I17
aI8
ag4
ag4
aa(lp1816
I17
aI8
ag4
ag5
aa(lp1817
I17
aI8
ag4
ag5
aa(lp1818
I17
aI8
ag4
ag5
aa(lp1819
I17
aI8
ag4
ag5
aa(lp1820
I17
aI8
ag4
ag5
aa(lp1821
I17
aI8
ag4
ag5
aa(lp1822
I17
aI8
ag4
ag4
aa(lp1823
I17
aI8
ag4
ag5
aa(lp1824
I17
aI8
ag4
ag5
aa(lp1825
I17
aI8
ag4
ag5
aa(lp1826
I17
aI8
ag4
ag5
aa(lp1827
I17
aI8
ag4
ag5
aa(lp1828
I17
aI8
ag4
ag5
aa(lp1829
I17
aI8
ag4
ag5
aa(lp1830
I17
aI8
ag4
ag5
aa(lp1831
I17
aI8
ag4
ag5
aa(lp1832
I17
aI8
ag4
ag5
aa(lp1833
I17
aI8
ag4
ag5
aa(lp1834
I17
aI8
ag4
ag5
aa(lp1835
I17
aI8
ag4
ag5
aa(lp1836
I17
aI8
ag4
ag5
aa(lp1837
I17
aI8
ag4
ag5
aa(lp1838
I17
aI8
ag4
ag5
aa(lp1839
I17
aI8
ag4
ag5
aa(lp1840
I17
aI8
ag4
ag5
aa(lp1841
I17
aI8
ag4
ag5
aa(lp1842
I17
aI8
ag4
ag5
aa(lp1843
I17
aI8
ag4
ag5
aa(lp1844
I17
aI8
ag4
ag5
aa(lp1845
I17
aI8
ag4
ag5
aa(lp1846
I17
aI8
ag4
ag5
aa(lp1847
I17
aI8
ag4
ag5
aa(lp1848
I17
aI8
ag4
ag5
aa(lp1849
I17
aI8
ag4
ag5
aa(lp1850
I17
aI8
ag4
ag5
aa(lp1851
I17
aI8
ag4
ag5
aa(lp1852
I17
aI8
ag4
ag5
aa(lp1853
I17
aI8
ag4
ag5
aa(lp1854
I17
aI8
ag4
ag5
aa(lp1855
I17
aI8
ag4
ag5
aa(lp1856
I17
aI8
ag4
ag5
aa(lp1857
I17
aI8
ag4
ag5
aa(lp1858
I17
aI8
ag4
ag5
aa(lp1859
I17
aI8
ag4
ag5
aa(lp1860
I17
aI8
ag4
ag5
aa(lp1861
I17
aI8
ag4
ag5
aa(lp1862
I17
aI8
ag4
ag5
aa(lp1863
I17
aI8
ag4
ag5
aa(lp1864
I17
aI8
ag4
ag5
aa(lp1865
I17
aI8
ag4
ag197
aa(lp1866
I17
aI8
ag4
ag197
aa(lp1867
I17
aI8
ag4
ag197
aa(lp1868
I17
aI8
ag4
ag5
aa(lp1869
I17
aI8
ag4
ag5
aa(lp1870
I17
aI8
ag4
ag5
aa(lp1871
I17
aI8
ag4
ag5
aa(lp1872
I17
aI8
ag4
ag5
aa(lp1873
I17
aI8
ag4
ag5
aa(lp1874
I17
aI8
ag4
ag5
aa(lp1875
I17
aI8
ag4
ag5
aa(lp1876
I17
aI8
ag4
ag5
aa(lp1877
I17
aI8
ag4
ag5
aa(lp1878
I17
aI8
ag4
ag5
aa(lp1879
I17
aI8
ag4
ag5
aa(lp1880
I17
aI8
ag4
ag4
aa(lp1881
I17
aI8
ag4
ag4
aa(lp1882
I17
aI8
ag4
ag4
aa(lp1883
I17
aI8
ag4
ag4
aa(lp1884
I17
aI8
ag4
ag4
aa(lp1885
I17
aI8
ag4
ag4
aa(lp1886
I17
aI8
ag4
ag4
aa(lp1887
I17
aI8
ag4
ag4
aa(lp1888
I17
aI8
ag4
ag4
aa(lp1889
I17
aI8
ag4
ag4
aa(lp1890
I17
aI8
ag4
ag4
aa(lp1891
I17
aI8
ag4
ag4
aa(lp1892
I17
aI8
ag4
ag4
aa(lp1893
I17
aI8
ag4
ag4
aasS'results'
p1894
(lp1895
S'correct'
p1896
ag1896
ag1896
ag1896
ag1896
ag1896
aS'unfinished'
p1897
ag1896
ag1896
ag1896
ag1896
aS'incorrect'
p1898
ag1897
ag1896
ag1896
ag1897
ag1898
ag1897
asS'times'
p1899
(lp1900
F126.00400000000081
aF117.99500000000262
aF112.00299999999697
aF71.00299999999697
aF73.99599999999919
aF136.9930000000022
aF140.00600000000122
aF74.99099999999453
aF106.99799999999959
aF120.00200000000041
aF70.99199999999837
aF94.99900000000343
aF139.99500000000262
aF51.00499999999738
aF58.99499999999534
aF139.99699999999575
aF96.99600000000646
aF139.8509999999951
as.