(dp0
S'history'
p1
(lp2
(lp3
I0
aI5
aS'B2'
p4
aS'B1'
p5
aa(lp6
I0
aI5
ag4
ag5
aa(lp7
I0
aI5
ag4
ag5
aa(lp8
I0
aI5
ag4
ag5
aa(lp9
I0
aI5
ag4
ag5
aa(lp10
I0
aI5
ag4
ag5
aa(lp11
I0
aI5
ag4
ag4
aa(lp12
I0
aI5
ag4
ag4
aa(lp13
I0
aI5
ag4
ag4
aa(lp14
I0
aI5
ag4
ag4
aa(lp15
I0
aI5
ag4
ag4
aa(lp16
I0
aI5
ag4
ag4
aa(lp17
I0
aI5
ag4
ag4
aa(lp18
I0
aI5
ag4
ag4
aa(lp19
I0
aI5
ag4
ag4
aa(lp20
I0
aI5
ag4
ag4
aa(lp21
I0
aI5
ag4
ag4
aa(lp22
I0
aI5
ag4
ag4
aa(lp23
I0
aI5
ag4
ag4
aa(lp24
I0
aI5
ag4
ag4
aa(lp25
I0
aI5
ag4
ag4
aa(lp26
I0
aI5
ag4
ag4
aa(lp27
I0
aI5
ag4
ag4
aa(lp28
I0
aI5
ag4
ag4
aa(lp29
I0
aI5
ag4
ag4
aa(lp30
I0
aI5
ag4
ag4
aa(lp31
I0
aI5
ag4
ag4
aa(lp32
I0
aI5
ag4
ag4
aa(lp33
I0
aI5
ag4
ag4
aa(lp34
I0
aI5
ag4
ag4
aa(lp35
I0
aI5
ag4
ag4
aa(lp36
I0
aI5
ag4
ag4
aa(lp37
I0
aI5
ag4
ag4
aa(lp38
I0
aI5
ag4
ag4
aa(lp39
I0
aI5
ag4
ag4
aa(lp40
I0
aI5
ag4
ag4
aa(lp41
I0
aI5
ag4
ag4
aa(lp42
I0
aI5
ag4
ag4
aa(lp43
I0
aI5
ag4
ag4
aa(lp44
I0
aI5
ag4
ag4
aa(lp45
I0
aI5
ag4
ag4
aa(lp46
I0
aI5
ag4
ag4
aa(lp47
I0
aI5
ag4
ag4
aa(lp48
I0
aI5
ag4
ag4
aa(lp49
I1
aI1
aS'B3'
p50
ag5
aa(lp51
I1
aI1
ag50
ag5
aa(lp52
I1
aI1
ag50
ag5
aa(lp53
I1
aI1
ag50
ag5
aa(lp54
I1
aI1
ag50
ag5
aa(lp55
I1
aI1
ag50
ag5
aa(lp56
I1
aI1
ag50
ag5
aa(lp57
I1
aI1
ag50
ag5
aa(lp58
I1
aI1
ag50
ag5
aa(lp59
I1
aI1
ag50
ag5
aa(lp60
I1
aI1
ag50
ag5
aa(lp61
I1
aI1
ag50
ag5
aa(lp62
I1
aI1
ag50
ag5
aa(lp63
I1
aI1
ag50
ag5
aa(lp64
I1
aI1
ag50
ag5
aa(lp65
I1
aI1
ag50
ag5
aa(lp66
I1
aI1
ag50
ag5
aa(lp67
I1
aI1
ag50
ag5
aa(lp68
I1
aI1
ag50
ag5
aa(lp69
I1
aI1
ag50
ag5
aa(lp70
I1
aI1
ag50
ag5
aa(lp71
I1
aI1
ag50
ag5
aa(lp72
I1
aI1
ag50
ag5
aa(lp73
I1
aI1
ag50
ag5
aa(lp74
I1
aI1
ag50
ag5
aa(lp75
I1
aI1
ag50
ag5
aa(lp76
I1
aI1
ag50
ag5
aa(lp77
I1
aI1
ag50
ag5
aa(lp78
I1
aI1
ag50
ag50
aa(lp79
I1
aI1
ag50
ag50
aa(lp80
I1
aI1
ag50
ag50
aa(lp81
I1
aI1
ag50
ag50
aa(lp82
I1
aI1
ag50
ag50
aa(lp83
I1
aI1
ag50
ag50
aa(lp84
I1
aI1
ag50
ag50
aa(lp85
I1
aI1
ag50
ag50
aa(lp86
I1
aI1
ag50
ag50
aa(lp87
I1
aI1
ag50
ag50
aa(lp88
I1
aI1
ag50
ag50
aa(lp89
I1
aI1
ag50
ag50
aa(lp90
I1
aI1
ag50
ag50
aa(lp91
I1
aI1
ag50
ag50
aa(lp92
I1
aI1
ag50
ag50
aa(lp93
I1
aI1
ag50
ag50
aa(lp94
I1
aI1
ag50
ag50
aa(lp95
I1
aI1
ag50
ag50
aa(lp96
I1
aI1
ag50
ag50
aa(lp97
I1
aI1
ag50
ag50
aa(lp98
I1
aI1
ag50
ag50
aa(lp99
I1
aI1
ag50
ag50
aa(lp100
I1
aI1
ag50
ag50
aa(lp101
I1
aI1
ag50
ag50
aa(lp102
I1
aI1
ag50
ag50
aa(lp103
I1
aI1
ag50
ag50
aa(lp104
I1
aI1
ag50
ag50
aa(lp105
I1
aI1
ag50
ag50
aa(lp106
I1
aI1
ag50
ag50
aa(lp107
I1
aI1
ag50
ag50
aa(lp108
I1
aI1
ag50
ag50
aa(lp109
I1
aI1
ag50
ag50
aa(lp110
I1
aI1
ag50
ag50
aa(lp111
I1
aI1
ag50
ag50
aa(lp112
I1
aI1
ag50
ag50
aa(lp113
I1
aI1
ag50
ag50
aa(lp114
I1
aI1
ag50
ag50
aa(lp115
I1
aI1
ag50
ag50
aa(lp116
I1
aI1
ag50
ag50
aa(lp117
I1
aI1
ag50
ag50
aa(lp118
I1
aI1
ag50
ag50
aa(lp119
I1
aI1
ag50
ag50
aa(lp120
I1
aI1
ag50
ag50
aa(lp121
I1
aI1
ag50
ag50
aa(lp122
I1
aI1
ag50
ag50
aa(lp123
I1
aI1
ag50
ag50
aa(lp124
I1
aI1
ag50
ag50
aa(lp125
I1
aI1
ag50
ag50
aa(lp126
I1
aI1
ag50
ag50
aa(lp127
I1
aI1
ag50
ag50
aa(lp128
I1
aI1
ag50
ag50
aa(lp129
I1
aI1
ag50
ag50
aa(lp130
I1
aI1
ag50
ag50
aa(lp131
I1
aI1
ag50
ag5
aa(lp132
I1
aI1
ag50
ag5
aa(lp133
I1
aI1
ag50
ag5
aa(lp134
I1
aI1
ag50
ag5
aa(lp135
I1
aI1
ag50
ag5
aa(lp136
I1
aI1
ag50
ag5
aa(lp137
I1
aI1
ag50
ag5
aa(lp138
I1
aI1
ag50
ag5
aa(lp139
I1
aI1
ag50
ag5
aa(lp140
I1
aI1
ag50
ag5
aa(lp141
I1
aI1
ag50
ag5
aa(lp142
I1
aI1
ag50
ag5
aa(lp143
I1
aI1
ag50
ag5
aa(lp144
I1
aI1
ag50
ag5
aa(lp145
I1
aI1
ag50
ag5
aa(lp146
I1
aI1
ag50
ag5
aa(lp147
I1
aI1
ag50
ag5
aa(lp148
I1
aI1
ag50
ag5
aa(lp149
I1
aI1
ag50
ag5
aa(lp150
I1
aI1
ag50
ag5
aa(lp151
I1
aI1
ag50
ag5
aa(lp152
I1
aI1
ag50
ag5
aa(lp153
I1
aI1
ag50
ag5
aa(lp154
I1
aI1
ag50
ag5
aa(lp155
I1
aI1
ag50
ag5
aa(lp156
I1
aI1
ag50
ag5
aa(lp157
I1
aI1
ag50
ag5
aa(lp158
I1
aI1
ag50
ag5
aa(lp159
I1
aI1
ag50
ag5
aa(lp160
I1
aI1
ag50
ag5
aa(lp161
I1
aI1
ag50
ag5
aa(lp162
I1
aI1
ag50
ag5
aa(lp163
I1
aI1
ag50
ag5
aa(lp164
I1
aI1
ag50
ag5
aa(lp165
I1
aI1
ag50
ag5
aa(lp166
I1
aI1
ag50
ag5
aa(lp167
I1
aI1
ag50
ag5
aa(lp168
I1
aI1
ag50
ag5
aa(lp169
I1
aI1
ag50
ag5
aa(lp170
I1
aI1
ag50
ag5
aa(lp171
I1
aI1
ag50
ag5
aa(lp172
I1
aI1
ag50
ag5
aa(lp173
I1
aI1
ag50
ag50
aa(lp174
I1
aI1
ag50
ag50
aa(lp175
I1
aI1
ag50
ag50
aa(lp176
I1
aI1
ag50
ag50
aa(lp177
I1
aI1
ag50
ag50
aa(lp178
I1
aI1
ag50
ag50
aa(lp179
I1
aI1
ag50
ag50
aa(lp180
I1
aI1
ag50
ag50
aa(lp181
I1
aI1
ag50
ag50
aa(lp182
I1
aI1
ag50
ag50
aa(lp183
I1
aI1
ag50
ag50
aa(lp184
I1
aI1
ag50
ag50
aa(lp185
I1
aI1
ag50
ag50
aa(lp186
I1
aI1
ag50
ag50
aa(lp187
I1
aI1
ag50
ag50
aa(lp188
I1
aI1
ag50
ag50
aa(lp189
I1
aI1
ag50
ag50
aa(lp190
I2
aI8
ag50
ag5
aa(lp191
I2
aI8
ag50
ag5
aa(lp192
I2
aI8
ag50
ag5
aa(lp193
I2
aI8
ag50
ag5
aa(lp194
I2
aI8
ag50
ag5
aa(lp195
I2
aI8
ag50
ag5
aa(lp196
I2
aI8
ag50
ag5
aa(lp197
I2
aI8
ag50
ag5
aa(lp198
I2
aI8
ag50
ag5
aa(lp199
I2
aI8
ag50
ag5
aa(lp200
I2
aI8
ag50
ag5
aa(lp201
I2
aI8
ag50
ag5
aa(lp202
I2
aI8
ag50
ag5
aa(lp203
I2
aI8
ag50
ag4
aa(lp204
I2
aI8
ag50
ag5
aa(lp205
I2
aI8
ag50
ag5
aa(lp206
I2
aI8
ag50
ag5
aa(lp207
I2
aI8
ag50
ag5
aa(lp208
I2
aI8
ag50
ag5
aa(lp209
I2
aI8
ag50
ag5
aa(lp210
I2
aI8
ag50
ag5
aa(lp211
I2
aI8
ag50
ag5
aa(lp212
I2
aI8
ag50
ag5
aa(lp213
I2
aI8
ag50
ag5
aa(lp214
I2
aI8
ag50
ag5
aa(lp215
I2
aI8
ag50
ag5
aa(lp216
I2
aI8
ag50
ag5
aa(lp217
I2
aI8
ag50
ag5
aa(lp218
I2
aI8
ag50
ag5
aa(lp219
I2
aI8
ag50
ag50
aa(lp220
I2
aI8
ag50
ag50
aa(lp221
I2
aI8
ag50
ag50
aa(lp222
I2
aI8
ag50
ag50
aa(lp223
I2
aI8
ag50
ag50
aa(lp224
I2
aI8
ag50
ag50
aa(lp225
I2
aI8
ag50
ag50
aa(lp226
I2
aI8
ag50
ag50
aa(lp227
I2
aI8
ag50
ag50
aa(lp228
I2
aI8
ag50
ag50
aa(lp229
I2
aI8
ag50
ag50
aa(lp230
I2
aI8
ag50
ag50
aa(lp231
I2
aI8
ag50
ag50
aa(lp232
I2
aI8
ag50
ag50
aa(lp233
I2
aI8
ag50
ag50
aa(lp234
I2
aI8
ag50
ag50
aa(lp235
I2
aI8
ag50
ag50
aa(lp236
I2
aI8
ag50
ag50
aa(lp237
I2
aI8
ag50
ag50
aa(lp238
I2
aI8
ag50
ag50
aa(lp239
I2
aI8
ag50
ag50
aa(lp240
I2
aI8
ag50
ag50
aa(lp241
I2
aI8
ag50
ag50
aa(lp242
I2
aI8
ag50
ag50
aa(lp243
I2
aI8
ag50
ag50
aa(lp244
I2
aI8
ag50
ag50
aa(lp245
I2
aI8
ag50
ag50
aa(lp246
I2
aI8
ag50
ag50
aa(lp247
I2
aI8
ag50
ag50
aa(lp248
I2
aI8
ag50
ag50
aa(lp249
I2
aI8
ag50
ag50
aa(lp250
I2
aI8
ag50
ag50
aa(lp251
I2
aI8
ag50
ag50
aa(lp252
I2
aI8
ag50
ag5
aa(lp253
I2
aI8
ag50
ag5
aa(lp254
I2
aI8
ag50
ag5
aa(lp255
I2
aI8
ag50
ag5
aa(lp256
I2
aI8
ag50
ag5
aa(lp257
I2
aI8
ag50
ag5
aa(lp258
I2
aI8
ag50
ag5
aa(lp259
I2
aI8
ag50
ag50
aa(lp260
I2
aI8
ag50
ag50
aa(lp261
I2
aI8
ag50
ag50
aa(lp262
I2
aI8
ag50
ag50
aa(lp263
I2
aI8
ag50
ag50
aa(lp264
I2
aI8
ag50
ag50
aa(lp265
I2
aI8
ag50
ag50
aa(lp266
I2
aI8
ag50
ag50
aa(lp267
I2
aI8
ag50
ag50
aa(lp268
I2
aI8
ag50
ag50
aa(lp269
I2
aI8
ag50
ag50
aa(lp270
I2
aI8
ag50
ag50
aa(lp271
I2
aI8
ag50
ag50
aa(lp272
I2
aI8
ag50
ag50
aa(lp273
I2
aI8
ag50
ag50
aa(lp274
I2
aI8
ag50
ag50
aa(lp275
I2
aI8
ag50
ag50
aa(lp276
I2
aI8
ag50
ag50
aa(lp277
I2
aI8
ag50
ag50
aa(lp278
I2
aI8
ag50
ag50
aa(lp279
I2
aI8
ag50
ag50
aa(lp280
I2
aI8
ag50
ag50
aa(lp281
I2
aI8
ag50
ag50
aa(lp282
I2
aI8
ag50
ag50
aa(lp283
I2
aI8
ag50
ag50
aa(lp284
I2
aI8
ag50
ag50
aa(lp285
I2
aI8
ag50
ag50
aa(lp286
I2
aI8
ag50
ag50
aa(lp287
I2
aI8
ag50
ag50
aa(lp288
I2
aI8
ag50
ag50
aa(lp289
I2
aI8
ag50
ag50
aa(lp290
I2
aI8
ag50
ag50
aa(lp291
I2
aI8
ag50
ag50
aa(lp292
I2
aI8
ag50
ag50
aa(lp293
I2
aI8
ag50
ag50
aa(lp294
I2
aI8
ag50
ag50
aa(lp295
I2
aI8
ag50
ag50
aa(lp296
I2
aI8
ag50
ag50
aa(lp297
I2
aI8
ag50
ag50
aa(lp298
I2
aI8
ag50
ag50
aa(lp299
I2
aI8
ag50
ag50
aa(lp300
I2
aI8
ag50
ag50
aa(lp301
I2
aI8
ag50
ag50
aa(lp302
I2
aI8
ag50
ag50
aa(lp303
I3
aI5
ag4
ag5
aa(lp304
I3
aI5
ag4
ag5
aa(lp305
I3
aI5
ag4
ag5
aa(lp306
I3
aI5
ag4
ag4
aa(lp307
I3
aI5
ag4
ag4
aa(lp308
I3
aI5
ag4
ag5
aa(lp309
I3
aI5
ag4
ag5
aa(lp310
I3
aI5
ag4
ag5
aa(lp311
I3
aI5
ag4
ag5
aa(lp312
I3
aI5
ag4
ag5
aa(lp313
I3
aI5
ag4
ag5
aa(lp314
I3
aI5
ag4
ag5
aa(lp315
I3
aI5
ag4
ag5
aa(lp316
I3
aI5
ag4
ag5
aa(lp317
I3
aI5
ag4
ag5
aa(lp318
I3
aI5
ag4
ag5
aa(lp319
I3
aI5
ag4
ag4
aa(lp320
I3
aI5
ag4
ag5
aa(lp321
I3
aI5
ag4
ag4
aa(lp322
I3
aI5
ag4
ag4
aa(lp323
I3
aI5
ag4
ag4
aa(lp324
I3
aI5
ag4
ag4
aa(lp325
I3
aI5
ag4
ag4
aa(lp326
I3
aI5
ag4
ag4
aa(lp327
I3
aI5
ag4
ag4
aa(lp328
I3
aI5
ag4
ag4
aa(lp329
I3
aI5
ag4
ag4
aa(lp330
I3
aI5
ag4
ag4
aa(lp331
I3
aI5
ag4
ag4
aa(lp332
I3
aI5
ag4
ag4
aa(lp333
I3
aI5
ag4
ag4
aa(lp334
I3
aI5
ag4
ag4
aa(lp335
I3
aI5
ag4
ag4
aa(lp336
I3
aI5
ag4
ag4
aa(lp337
I3
aI5
ag4
ag4
aa(lp338
I3
aI5
ag4
ag50
aa(lp339
I3
aI5
ag4
ag4
aa(lp340
I3
aI5
ag4
ag4
aa(lp341
I3
aI5
ag4
ag4
aa(lp342
I3
aI5
ag4
ag4
aa(lp343
I3
aI5
ag4
ag4
aa(lp344
I3
aI5
ag4
ag4
aa(lp345
I3
aI5
ag4
ag4
aa(lp346
I3
aI5
ag4
ag4
aa(lp347
I3
aI5
ag4
ag4
aa(lp348
I3
aI5
ag4
ag4
aa(lp349
I3
aI5
ag4
ag4
aa(lp350
I3
aI5
ag4
ag4
aa(lp351
I3
aI5
ag4
ag4
aa(lp352
I3
aI5
ag4
ag4
aa(lp353
I3
aI5
ag4
ag4
aa(lp354
I3
aI5
ag4
ag4
aa(lp355
I3
aI5
ag4
ag4
aa(lp356
I3
aI5
ag4
ag4
aa(lp357
I3
aI5
ag4
ag4
aa(lp358
I3
aI5
ag4
ag4
aa(lp359
I3
aI5
ag4
ag4
aa(lp360
I3
aI5
ag4
ag4
aa(lp361
I3
aI5
ag4
ag4
aa(lp362
I3
aI5
ag4
ag4
aa(lp363
I3
aI5
ag4
ag4
aa(lp364
I3
aI5
ag4
ag4
aa(lp365
I3
aI5
ag4
ag4
aa(lp366
I3
aI5
ag4
ag4
aa(lp367
I4
aI1
ag50
ag5
aa(lp368
I4
aI1
ag50
ag5
aa(lp369
I4
aI1
ag50
ag5
aa(lp370
I4
aI1
ag50
ag5
aa(lp371
I4
aI1
ag50
ag5
aa(lp372
I4
aI1
ag50
ag5
aa(lp373
I4
aI1
ag50
ag5
aa(lp374
I4
aI1
ag50
ag5
aa(lp375
I4
aI1
ag50
ag5
aa(lp376
I4
aI1
ag50
ag5
aa(lp377
I4
aI1
ag50
ag5
aa(lp378
I4
aI1
ag50
ag5
aa(lp379
I4
aI1
ag50
ag50
aa(lp380
I4
aI1
ag50
ag50
aa(lp381
I4
aI1
ag50
ag50
aa(lp382
I4
aI1
ag50
ag50
aa(lp383
I4
aI1
ag50
ag50
aa(lp384
I4
aI1
ag50
ag50
aa(lp385
I4
aI1
ag50
ag50
aa(lp386
I4
aI1
ag50
ag50
aa(lp387
I4
aI1
ag50
ag50
aa(lp388
I4
aI1
ag50
ag50
aa(lp389
I4
aI1
ag50
ag50
aa(lp390
I4
aI1
ag50
ag50
aa(lp391
I4
aI1
ag50
ag50
aa(lp392
I4
aI1
ag50
ag50
aa(lp393
I4
aI1
ag50
ag50
aa(lp394
I4
aI1
ag50
ag50
aa(lp395
I4
aI1
ag50
ag50
aa(lp396
I4
aI1
ag50
ag50
aa(lp397
I4
aI1
ag50
ag50
aa(lp398
I4
aI1
ag50
ag50
aa(lp399
I4
aI1
ag50
ag50
aa(lp400
I4
aI1
ag50
ag5
aa(lp401
I4
aI1
ag50
ag5
aa(lp402
I4
aI1
ag50
ag5
aa(lp403
I4
aI1
ag50
ag5
aa(lp404
I4
aI1
ag50
ag5
aa(lp405
I4
aI1
ag50
ag5
aa(lp406
I4
aI1
ag50
ag5
aa(lp407
I4
aI1
ag50
ag5
aa(lp408
I4
aI1
ag50
ag5
aa(lp409
I4
aI1
ag50
ag50
aa(lp410
I4
aI1
ag50
ag50
aa(lp411
I4
aI1
ag50
ag50
aa(lp412
I4
aI1
ag50
ag50
aa(lp413
I4
aI1
ag50
ag50
aa(lp414
I4
aI1
ag50
ag50
aa(lp415
I4
aI1
ag50
ag50
aa(lp416
I4
aI1
ag50
ag50
aa(lp417
I4
aI1
ag50
ag50
aa(lp418
I4
aI1
ag50
ag50
aa(lp419
I4
aI1
ag50
ag50
aa(lp420
I4
aI1
ag50
ag50
aa(lp421
I4
aI1
ag50
ag50
aa(lp422
I4
aI1
ag50
ag50
aa(lp423
I4
aI1
ag50
ag50
aa(lp424
I4
aI1
ag50
ag50
aa(lp425
I4
aI1
ag50
ag50
aa(lp426
I4
aI1
ag50
ag50
aa(lp427
I4
aI1
ag50
ag50
aa(lp428
I4
aI1
ag50
ag50
aa(lp429
I4
aI1
ag50
ag50
aa(lp430
I4
aI1
ag50
ag50
aa(lp431
I4
aI1
ag50
ag50
aa(lp432
I4
aI1
ag50
ag50
aa(lp433
I4
aI1
ag50
ag50
aa(lp434
I4
aI1
ag50
ag5
aa(lp435
I4
aI1
ag50
ag5
aa(lp436
I4
aI1
ag50
ag5
aa(lp437
I4
aI1
ag50
ag5
aa(lp438
I4
aI1
ag50
ag5
aa(lp439
I4
aI1
ag50
ag5
aa(lp440
I4
aI1
ag50
ag5
aa(lp441
I4
aI1
ag50
ag5
aa(lp442
I4
aI1
ag50
ag5
aa(lp443
I4
aI1
ag50
ag5
aa(lp444
I4
aI1
ag50
ag50
aa(lp445
I4
aI1
ag50
ag50
aa(lp446
I4
aI1
ag50
ag50
aa(lp447
I4
aI1
ag50
ag50
aa(lp448
I4
aI1
ag50
ag50
aa(lp449
I4
aI1
ag50
ag50
aa(lp450
I4
aI1
ag50
ag50
aa(lp451
I4
aI1
ag50
ag50
aa(lp452
I4
aI1
ag50
ag50
aa(lp453
I4
aI1
ag50
ag50
aa(lp454
I4
aI1
ag50
ag50
aa(lp455
I4
aI1
ag50
ag50
aa(lp456
I4
aI1
ag50
ag50
aa(lp457
I4
aI1
ag50
ag50
aa(lp458
I4
aI1
ag50
ag50
aa(lp459
I4
aI1
ag50
ag50
aa(lp460
I4
aI1
ag50
ag50
aa(lp461
I4
aI1
ag50
ag50
aa(lp462
I4
aI1
ag50
ag50
aa(lp463
I4
aI1
ag50
ag50
aa(lp464
I4
aI1
ag50
ag50
aa(lp465
I4
aI1
ag50
ag50
aa(lp466
I4
aI1
ag50
ag50
aa(lp467
I4
aI1
ag50
ag50
aa(lp468
I4
aI1
ag50
ag50
aa(lp469
I4
aI1
ag50
ag50
aa(lp470
I4
aI1
ag50
ag50
aa(lp471
I4
aI1
ag50
ag50
aa(lp472
I4
aI1
ag50
ag50
aa(lp473
I4
aI1
ag50
ag50
aa(lp474
I4
aI1
ag50
ag50
aa(lp475
I4
aI1
ag50
ag50
aa(lp476
I4
aI1
ag50
ag50
aa(lp477
I4
aI1
ag50
ag50
aa(lp478
I4
aI1
ag50
ag50
aa(lp479
I4
aI1
ag50
ag50
aa(lp480
I4
aI1
ag50
ag50
aa(lp481
I4
aI1
ag50
ag50
aa(lp482
I4
aI1
ag50
ag50
aa(lp483
I4
aI1
ag50
ag50
aa(lp484
I4
aI1
ag50
ag50
aa(lp485
I4
aI1
ag50
ag50
aa(lp486
I4
aI1
ag50
ag50
aa(lp487
I4
aI1
ag50
ag50
aa(lp488
I4
aI1
ag50
ag50
aa(lp489
I4
aI1
ag50
ag50
aa(lp490
I4
aI1
ag50
ag50
aa(lp491
I5
aI2
ag4
ag5
aa(lp492
I5
aI2
ag4
ag5
aa(lp493
I5
aI2
ag4
ag5
aa(lp494
I5
aI2
ag4
ag5
aa(lp495
I5
aI2
ag4
ag5
aa(lp496
I5
aI2
ag4
ag5
aa(lp497
I5
aI2
ag4
ag5
aa(lp498
I5
aI2
ag4
ag5
aa(lp499
I5
aI2
ag4
ag4
aa(lp500
I5
aI2
ag4
ag5
aa(lp501
I5
aI2
ag4
ag4
aa(lp502
I5
aI2
ag4
ag4
aa(lp503
I5
aI2
ag4
ag4
aa(lp504
I5
aI2
ag4
ag4
aa(lp505
I5
aI2
ag4
ag4
aa(lp506
I5
aI2
ag4
ag4
aa(lp507
I5
aI2
ag4
ag4
aa(lp508
I5
aI2
ag4
ag4
aa(lp509
I5
aI2
ag4
ag4
aa(lp510
I5
aI2
ag4
ag4
aa(lp511
I5
aI2
ag4
ag4
aa(lp512
I5
aI2
ag4
ag4
aa(lp513
I5
aI2
ag4
ag4
aa(lp514
I5
aI2
ag4
ag4
aa(lp515
I5
aI2
ag4
ag4
aa(lp516
I5
aI2
ag4
ag4
aa(lp517
I5
aI2
ag4
ag4
aa(lp518
I5
aI2
ag4
ag4
aa(lp519
I5
aI2
ag4
ag4
aa(lp520
I5
aI2
ag4
ag4
aa(lp521
I5
aI2
ag4
ag4
aa(lp522
I5
aI2
ag4
ag4
aa(lp523
I5
aI2
ag4
ag4
aa(lp524
I5
aI2
ag4
ag4
aa(lp525
I5
aI2
ag4
ag4
aa(lp526
I5
aI2
ag4
ag4
aa(lp527
I5
aI2
ag4
ag4
aa(lp528
I5
aI2
ag4
ag4
aa(lp529
I5
aI2
ag4
ag4
aa(lp530
I5
aI2
ag4
ag4
aa(lp531
I5
aI2
ag4
ag4
aa(lp532
I5
aI2
ag4
ag4
aa(lp533
I5
aI2
ag4
ag4
aa(lp534
I5
aI2
ag4
ag4
aa(lp535
I5
aI2
ag4
ag4
aa(lp536
I5
aI2
ag4
ag4
aa(lp537
I5
aI2
ag4
ag4
aa(lp538
I5
aI2
ag4
ag4
aa(lp539
I5
aI2
ag4
ag4
aa(lp540
I5
aI2
ag4
ag4
aa(lp541
I5
aI2
ag4
ag4
aa(lp542
I5
aI2
ag4
ag4
aa(lp543
I5
aI2
ag4
ag4
aa(lp544
I5
aI2
ag4
ag4
aa(lp545
I5
aI2
ag4
ag4
aa(lp546
I5
aI2
ag4
ag4
aa(lp547
I5
aI2
ag4
ag4
aa(lp548
I5
aI2
ag4
ag4
aa(lp549
I5
aI2
ag4
ag4
aa(lp550
I5
aI2
ag4
ag4
aa(lp551
I5
aI2
ag4
ag4
aa(lp552
I5
aI2
ag4
ag4
aa(lp553
I5
aI2
ag4
ag4
aa(lp554
I5
aI2
ag4
ag4
aa(lp555
I5
aI2
ag4
ag4
aa(lp556
I5
aI2
ag4
ag4
aa(lp557
I5
aI2
ag4
ag4
aa(lp558
I5
aI2
ag4
ag4
aa(lp559
I5
aI2
ag4
ag4
aa(lp560
I5
aI2
ag4
ag4
aa(lp561
I5
aI2
ag4
ag4
aa(lp562
I5
aI2
ag4
ag4
aa(lp563
I5
aI2
ag4
ag4
aa(lp564
I5
aI2
ag4
ag4
aa(lp565
I5
aI2
ag4
ag4
aa(lp566
I5
aI2
ag4
ag4
aa(lp567
I5
aI2
ag4
ag4
aa(lp568
I5
aI2
ag4
ag4
aa(lp569
I6
aI6
ag5
ag5
aa(lp570
I6
aI6
ag5
ag5
aa(lp571
I6
aI6
ag5
ag5
aa(lp572
I6
aI6
ag5
ag5
aa(lp573
I6
aI6
ag5
ag5
aa(lp574
I6
aI6
ag5
ag5
aa(lp575
I6
aI6
ag5
ag5
aa(lp576
I6
aI6
ag5
ag5
aa(lp577
I6
aI6
ag5
ag5
aa(lp578
I6
aI6
ag5
ag5
aa(lp579
I6
aI6
ag5
ag5
aa(lp580
I6
aI6
ag5
ag5
aa(lp581
I6
aI6
ag5
ag5
aa(lp582
I6
aI6
ag5
ag5
aa(lp583
I6
aI6
ag5
ag5
aa(lp584
I6
aI6
ag5
ag5
aa(lp585
I6
aI6
ag5
ag5
aa(lp586
I6
aI6
ag5
ag5
aa(lp587
I6
aI6
ag5
ag5
aa(lp588
I6
aI6
ag5
ag5
aa(lp589
I6
aI6
ag5
ag5
aa(lp590
I6
aI6
ag5
ag5
aa(lp591
I6
aI6
ag5
ag5
aa(lp592
I6
aI6
ag5
ag5
aa(lp593
I6
aI6
ag5
ag5
aa(lp594
I6
aI6
ag5
ag50
aa(lp595
I6
aI6
ag5
ag5
aa(lp596
I6
aI6
ag5
ag5
aa(lp597
I6
aI6
ag5
ag5
aa(lp598
I6
aI6
ag5
ag5
aa(lp599
I6
aI6
ag5
ag5
aa(lp600
I6
aI6
ag5
ag5
aa(lp601
I6
aI6
ag5
ag5
aa(lp602
I6
aI6
ag5
ag5
aa(lp603
I6
aI6
ag5
ag5
aa(lp604
I6
aI6
ag5
ag5
aa(lp605
I6
aI6
ag5
ag5
aa(lp606
I6
aI6
ag5
ag5
aa(lp607
I6
aI6
ag5
ag5
aa(lp608
I6
aI6
ag5
ag5
aa(lp609
I6
aI6
ag5
ag5
aa(lp610
I6
aI6
ag5
ag5
aa(lp611
I6
aI6
ag5
ag5
aa(lp612
I6
aI6
ag5
ag5
aa(lp613
I6
aI6
ag5
ag5
aa(lp614
I6
aI6
ag5
ag5
aa(lp615
I6
aI6
ag5
ag5
aa(lp616
I6
aI6
ag5
ag5
aa(lp617
I6
aI6
ag5
ag5
aa(lp618
I6
aI6
ag5
ag5
aa(lp619
I6
aI6
ag5
ag5
aa(lp620
I6
aI6
ag5
ag5
aa(lp621
I6
aI6
ag5
ag5
aa(lp622
I6
aI6
ag5
ag5
aa(lp623
I6
aI6
ag5
ag5
aa(lp624
I6
aI6
ag5
ag5
aa(lp625
I6
aI6
ag5
ag5
aa(lp626
I6
aI6
ag5
ag5
aa(lp627
I6
aI6
ag5
ag5
aa(lp628
I6
aI6
ag5
ag5
aa(lp629
I6
aI6
ag5
ag5
aa(lp630
I6
aI6
ag5
ag5
aa(lp631
I6
aI6
ag5
ag5
aa(lp632
I6
aI6
ag5
ag5
aa(lp633
I6
aI6
ag5
ag5
aa(lp634
I6
aI6
ag5
ag5
aa(lp635
I6
aI6
ag5
ag5
aa(lp636
I6
aI6
ag5
ag5
aa(lp637
I6
aI6
ag5
ag5
aa(lp638
I6
aI6
ag5
ag5
aa(lp639
I6
aI6
ag5
ag5
aa(lp640
I6
aI6
ag5
ag5
aa(lp641
I6
aI6
ag5
ag5
aa(lp642
I6
aI6
ag5
ag5
aa(lp643
I6
aI6
ag5
ag5
aa(lp644
I6
aI6
ag5
ag5
aa(lp645
I6
aI6
ag5
ag5
aa(lp646
I6
aI6
ag5
ag5
aa(lp647
I6
aI6
ag5
ag5
aa(lp648
I6
aI6
ag5
ag5
aa(lp649
I6
aI6
ag5
ag5
aa(lp650
I6
aI6
ag5
ag5
aa(lp651
I6
aI6
ag5
ag5
aa(lp652
I6
aI6
ag5
ag5
aa(lp653
I6
aI6
ag5
ag5
aa(lp654
I6
aI6
ag5
ag5
aa(lp655
I6
aI6
ag5
ag5
aa(lp656
I6
aI6
ag5
ag5
aa(lp657
I6
aI6
ag5
ag5
aa(lp658
I6
aI6
ag5
ag5
aa(lp659
I6
aI6
ag5
ag5
aa(lp660
I6
aI6
ag5
ag5
aa(lp661
I6
aI6
ag5
ag5
aa(lp662
I6
aI6
ag5
ag5
aa(lp663
I6
aI6
ag5
ag5
aa(lp664
I6
aI6
ag5
ag5
aa(lp665
I7
aI7
ag5
ag5
aa(lp666
I7
aI7
ag5
ag5
aa(lp667
I7
aI7
ag5
ag5
aa(lp668
I7
aI7
ag5
ag5
aa(lp669
I7
aI7
ag5
ag5
aa(lp670
I7
aI7
ag5
ag5
aa(lp671
I7
aI7
ag5
ag5
aa(lp672
I7
aI7
ag5
ag5
aa(lp673
I7
aI7
ag5
ag50
aa(lp674
I7
aI7
ag5
ag50
aa(lp675
I7
aI7
ag5
ag50
aa(lp676
I7
aI7
ag5
ag50
aa(lp677
I7
aI7
ag5
ag50
aa(lp678
I7
aI7
ag5
ag50
aa(lp679
I7
aI7
ag5
ag5
aa(lp680
I7
aI7
ag5
ag5
aa(lp681
I7
aI7
ag5
ag5
aa(lp682
I7
aI7
ag5
ag5
aa(lp683
I7
aI7
ag5
ag5
aa(lp684
I7
aI7
ag5
ag5
aa(lp685
I7
aI7
ag5
ag5
aa(lp686
I7
aI7
ag5
ag5
aa(lp687
I7
aI7
ag5
ag5
aa(lp688
I7
aI7
ag5
ag5
aa(lp689
I7
aI7
ag5
ag5
aa(lp690
I7
aI7
ag5
ag5
aa(lp691
I7
aI7
ag5
ag5
aa(lp692
I7
aI7
ag5
ag5
aa(lp693
I7
aI7
ag5
ag5
aa(lp694
I7
aI7
ag5
ag5
aa(lp695
I7
aI7
ag5
ag5
aa(lp696
I7
aI7
ag5
ag5
aa(lp697
I7
aI7
ag5
ag5
aa(lp698
I7
aI7
ag5
ag50
aa(lp699
I7
aI7
ag5
ag50
aa(lp700
I7
aI7
ag5
ag50
aa(lp701
I7
aI7
ag5
ag50
aa(lp702
I7
aI7
ag5
ag50
aa(lp703
I7
aI7
ag5
ag50
aa(lp704
I7
aI7
ag5
ag50
aa(lp705
I7
aI7
ag5
ag50
aa(lp706
I7
aI7
ag5
ag50
aa(lp707
I7
aI7
ag5
ag50
aa(lp708
I7
aI7
ag5
ag50
aa(lp709
I7
aI7
ag5
ag50
aa(lp710
I7
aI7
ag5
ag50
aa(lp711
I7
aI7
ag5
ag50
aa(lp712
I7
aI7
ag5
ag50
aa(lp713
I7
aI7
ag5
ag50
aa(lp714
I7
aI7
ag5
ag50
aa(lp715
I7
aI7
ag5
ag50
aa(lp716
I7
aI7
ag5
ag5
aa(lp717
I7
aI7
ag5
ag5
aa(lp718
I7
aI7
ag5
ag5
aa(lp719
I7
aI7
ag5
ag5
aa(lp720
I7
aI7
ag5
ag5
aa(lp721
I7
aI7
ag5
ag5
aa(lp722
I7
aI7
ag5
ag5
aa(lp723
I7
aI7
ag5
ag5
aa(lp724
I7
aI7
ag5
ag5
aa(lp725
I7
aI7
ag5
ag5
aa(lp726
I7
aI7
ag5
ag5
aa(lp727
I7
aI7
ag5
ag5
aa(lp728
I7
aI7
ag5
ag5
aa(lp729
I7
aI7
ag5
ag5
aa(lp730
I7
aI7
ag5
ag5
aa(lp731
I7
aI7
ag5
ag5
aa(lp732
I7
aI7
ag5
ag5
aa(lp733
I7
aI7
ag5
ag5
aa(lp734
I7
aI7
ag5
ag5
aa(lp735
I7
aI7
ag5
ag5
aa(lp736
I7
aI7
ag5
ag5
aa(lp737
I7
aI7
ag5
ag5
aa(lp738
I7
aI7
ag5
ag50
aa(lp739
I7
aI7
ag5
ag50
aa(lp740
I7
aI7
ag5
ag50
aa(lp741
I7
aI7
ag5
ag50
aa(lp742
I7
aI7
ag5
ag50
aa(lp743
I7
aI7
ag5
ag50
aa(lp744
I7
aI7
ag5
ag5
aa(lp745
I7
aI7
ag5
ag5
aa(lp746
I7
aI7
ag5
ag5
aa(lp747
I7
aI7
ag5
ag5
aa(lp748
I7
aI7
ag5
ag5
aa(lp749
I7
aI7
ag5
ag5
aa(lp750
I7
aI7
ag5
ag5
aa(lp751
I7
aI7
ag5
ag5
aa(lp752
I7
aI7
ag5
ag5
aa(lp753
I7
aI7
ag5
ag5
aa(lp754
I7
aI7
ag5
ag5
aa(lp755
I7
aI7
ag5
ag5
aa(lp756
I7
aI7
ag5
ag5
aa(lp757
I7
aI7
ag5
ag5
aa(lp758
I7
aI7
ag5
ag5
aa(lp759
I7
aI7
ag5
ag5
aa(lp760
I7
aI7
ag5
ag5
aa(lp761
I7
aI7
ag5
ag5
aa(lp762
I7
aI7
ag5
ag5
aa(lp763
I7
aI7
ag5
ag5
aa(lp764
I7
aI7
ag5
ag5
aa(lp765
I7
aI7
ag5
ag5
aa(lp766
I7
aI7
ag5
ag5
aa(lp767
I7
aI7
ag5
ag5
aa(lp768
I7
aI7
ag5
ag5
aa(lp769
I7
aI7
ag5
ag5
aa(lp770
I7
aI7
ag5
ag5
aa(lp771
I7
aI7
ag5
ag5
aa(lp772
I7
aI7
ag5
ag5
aa(lp773
I7
aI7
ag5
ag5
aa(lp774
I7
aI7
ag5
ag5
aa(lp775
I7
aI7
ag5
ag5
aa(lp776
I7
aI7
ag5
ag5
aa(lp777
I7
aI7
ag5
ag5
aa(lp778
I7
aI7
ag5
ag5
aa(lp779
I7
aI7
ag5
ag5
aa(lp780
I7
aI7
ag5
ag5
aa(lp781
I7
aI7
ag5
ag5
aa(lp782
I7
aI7
ag5
ag5
aa(lp783
I7
aI7
ag5
ag5
aa(lp784
I7
aI7
ag5
ag5
aa(lp785
I7
aI7
ag5
ag5
aa(lp786
I7
aI7
ag5
ag5
aa(lp787
I7
aI7
ag5
ag5
aa(lp788
I7
aI7
ag5
ag5
aa(lp789
I7
aI7
ag5
ag5
aa(lp790
I7
aI7
ag5
ag5
aa(lp791
I7
aI7
ag5
ag5
aa(lp792
I7
aI7
ag5
ag5
aa(lp793
I7
aI7
ag5
ag5
aa(lp794
I7
aI7
ag5
ag5
aa(lp795
I7
aI7
ag5
ag5
aa(lp796
I7
aI7
ag5
ag5
aa(lp797
I7
aI7
ag5
ag5
aa(lp798
I7
aI7
ag5
ag5
aa(lp799
I7
aI7
ag5
ag5
aa(lp800
I7
aI7
ag5
ag5
aa(lp801
I8
aI4
ag5
ag5
aa(lp802
I8
aI4
ag5
ag5
aa(lp803
I8
aI4
ag5
ag5
aa(lp804
I8
aI4
ag5
ag5
aa(lp805
I8
aI4
ag5
ag5
aa(lp806
I8
aI4
ag5
ag5
aa(lp807
I8
aI4
ag5
ag5
aa(lp808
I8
aI4
ag5
ag4
aa(lp809
I8
aI4
ag5
ag4
aa(lp810
I8
aI4
ag5
ag4
aa(lp811
I8
aI4
ag5
ag4
aa(lp812
I8
aI4
ag5
ag4
aa(lp813
I8
aI4
ag5
ag50
aa(lp814
I8
aI4
ag5
ag50
aa(lp815
I8
aI4
ag5
ag50
aa(lp816
I8
aI4
ag5
ag50
aa(lp817
I8
aI4
ag5
ag50
aa(lp818
I8
aI4
ag5
ag50
aa(lp819
I8
aI4
ag5
ag50
aa(lp820
I8
aI4
ag5
ag50
aa(lp821
I8
aI4
ag5
ag50
aa(lp822
I8
aI4
ag5
ag50
aa(lp823
I8
aI4
ag5
ag50
aa(lp824
I8
aI4
ag5
ag50
aa(lp825
I8
aI4
ag5
ag50
aa(lp826
I8
aI4
ag5
ag50
aa(lp827
I8
aI4
ag5
ag50
aa(lp828
I8
aI4
ag5
ag50
aa(lp829
I8
aI4
ag5
ag50
aa(lp830
I8
aI4
ag5
ag50
aa(lp831
I8
aI4
ag5
ag5
aa(lp832
I8
aI4
ag5
ag5
aa(lp833
I8
aI4
ag5
ag5
aa(lp834
I8
aI4
ag5
ag5
aa(lp835
I8
aI4
ag5
ag5
aa(lp836
I8
aI4
ag5
ag5
aa(lp837
I8
aI4
ag5
ag5
aa(lp838
I8
aI4
ag5
ag5
aa(lp839
I8
aI4
ag5
ag5
aa(lp840
I8
aI4
ag5
ag5
aa(lp841
I8
aI4
ag5
ag50
aa(lp842
I8
aI4
ag5
ag5
aa(lp843
I8
aI4
ag5
ag5
aa(lp844
I8
aI4
ag5
ag5
aa(lp845
I8
aI4
ag5
ag5
aa(lp846
I8
aI4
ag5
ag5
aa(lp847
I8
aI4
ag5
ag5
aa(lp848
I8
aI4
ag5
ag5
aa(lp849
I8
aI4
ag5
ag5
aa(lp850
I8
aI4
ag5
ag5
aa(lp851
I8
aI4
ag5
ag5
aa(lp852
I8
aI4
ag5
ag5
aa(lp853
I8
aI4
ag5
ag5
aa(lp854
I8
aI4
ag5
ag5
aa(lp855
I8
aI4
ag5
ag5
aa(lp856
I8
aI4
ag5
ag5
aa(lp857
I8
aI4
ag5
ag5
aa(lp858
I8
aI4
ag5
ag5
aa(lp859
I8
aI4
ag5
ag5
aa(lp860
I8
aI4
ag5
ag5
aa(lp861
I8
aI4
ag5
ag5
aa(lp862
I8
aI4
ag5
ag5
aa(lp863
I8
aI4
ag5
ag5
aa(lp864
I8
aI4
ag5
ag5
aa(lp865
I8
aI4
ag5
ag5
aa(lp866
I8
aI4
ag5
ag5
aa(lp867
I8
aI4
ag5
ag5
aa(lp868
I8
aI4
ag5
ag5
aa(lp869
I8
aI4
ag5
ag5
aa(lp870
I8
aI4
ag5
ag50
aa(lp871
I8
aI4
ag5
ag50
aa(lp872
I8
aI4
ag5
ag50
aa(lp873
I8
aI4
ag5
ag50
aa(lp874
I8
aI4
ag5
ag50
aa(lp875
I8
aI4
ag5
ag50
aa(lp876
I8
aI4
ag5
ag50
aa(lp877
I8
aI4
ag5
ag50
aa(lp878
I8
aI4
ag5
ag50
aa(lp879
I8
aI4
ag5
ag50
aa(lp880
I8
aI4
ag5
ag5
aa(lp881
I8
aI4
ag5
ag5
aa(lp882
I8
aI4
ag5
ag5
aa(lp883
I8
aI4
ag5
ag5
aa(lp884
I8
aI4
ag5
ag5
aa(lp885
I8
aI4
ag5
ag5
aa(lp886
I8
aI4
ag5
ag5
aa(lp887
I8
aI4
ag5
ag5
aa(lp888
I8
aI4
ag5
ag5
aa(lp889
I8
aI4
ag5
ag5
aa(lp890
I8
aI4
ag5
ag5
aa(lp891
I8
aI4
ag5
ag5
aa(lp892
I8
aI4
ag5
ag5
aa(lp893
I8
aI4
ag5
ag5
aa(lp894
I8
aI4
ag5
ag5
aa(lp895
I8
aI4
ag5
ag5
aa(lp896
I8
aI4
ag5
ag5
aa(lp897
I8
aI4
ag5
ag5
aa(lp898
I8
aI4
ag5
ag5
aa(lp899
I8
aI4
ag5
ag5
aa(lp900
I8
aI4
ag5
ag5
aa(lp901
I8
aI4
ag5
ag5
aa(lp902
I8
aI4
ag5
ag5
aa(lp903
I8
aI4
ag5
ag5
aa(lp904
I8
aI4
ag5
ag5
aa(lp905
I8
aI4
ag5
ag5
aa(lp906
I8
aI4
ag5
ag5
aa(lp907
I8
aI4
ag5
ag5
aa(lp908
I8
aI4
ag5
ag5
aa(lp909
I8
aI4
ag5
ag5
aa(lp910
I8
aI4
ag5
ag5
aa(lp911
I8
aI4
ag5
ag5
aa(lp912
I8
aI4
ag5
ag5
aa(lp913
I8
aI4
ag5
ag5
aa(lp914
I8
aI4
ag5
ag5
aa(lp915
I8
aI4
ag5
ag5
aa(lp916
I8
aI4
ag5
ag5
aa(lp917
I8
aI4
ag5
ag5
aa(lp918
I8
aI4
ag5
ag5
aa(lp919
I8
aI4
ag5
ag5
aa(lp920
I8
aI4
ag5
ag5
aa(lp921
I8
aI4
ag5
ag5
aa(lp922
I8
aI4
ag5
ag5
aa(lp923
I8
aI4
ag5
ag5
aa(lp924
I8
aI4
ag5
ag5
aa(lp925
I8
aI4
ag5
ag5
aa(lp926
I9
aI0
ag5
ag5
aa(lp927
I9
aI0
ag5
ag5
aa(lp928
I9
aI0
ag5
ag5
aa(lp929
I9
aI0
ag5
ag5
aa(lp930
I9
aI0
ag5
ag5
aa(lp931
I9
aI0
ag5
ag5
aa(lp932
I9
aI0
ag5
ag5
aa(lp933
I9
aI0
ag5
ag5
aa(lp934
I9
aI0
ag5
ag5
aa(lp935
I9
aI0
ag5
ag50
aa(lp936
I9
aI0
ag5
ag50
aa(lp937
I9
aI0
ag5
ag50
aa(lp938
I9
aI0
ag5
ag50
aa(lp939
I9
aI0
ag5
ag50
aa(lp940
I9
aI0
ag5
ag50
aa(lp941
I9
aI0
ag5
ag50
aa(lp942
I9
aI0
ag5
ag50
aa(lp943
I9
aI0
ag5
ag50
aa(lp944
I9
aI0
ag5
ag50
aa(lp945
I9
aI0
ag5
ag50
aa(lp946
I9
aI0
ag5
ag50
aa(lp947
I9
aI0
ag5
ag50
aa(lp948
I9
aI0
ag5
ag50
aa(lp949
I9
aI0
ag5
ag50
aa(lp950
I9
aI0
ag5
ag50
aa(lp951
I9
aI0
ag5
ag50
aa(lp952
I9
aI0
ag5
ag50
aa(lp953
I9
aI0
ag5
ag50
aa(lp954
I9
aI0
ag5
ag5
aa(lp955
I9
aI0
ag5
ag5
aa(lp956
I9
aI0
ag5
ag50
aa(lp957
I9
aI0
ag5
ag50
aa(lp958
I9
aI0
ag5
ag50
aa(lp959
I9
aI0
ag5
ag50
aa(lp960
I9
aI0
ag5
ag50
aa(lp961
I9
aI0
ag5
ag50
aa(lp962
I9
aI0
ag5
ag50
aa(lp963
I9
aI0
ag5
ag50
aa(lp964
I9
aI0
ag5
ag5
aa(lp965
I9
aI0
ag5
ag5
aa(lp966
I9
aI0
ag5
ag5
aa(lp967
I9
aI0
ag5
ag5
aa(lp968
I9
aI0
ag5
ag5
aa(lp969
I9
aI0
ag5
ag5
aa(lp970
I9
aI0
ag5
ag5
aa(lp971
I9
aI0
ag5
ag5
aa(lp972
I9
aI0
ag5
ag5
aa(lp973
I9
aI0
ag5
ag5
aa(lp974
I9
aI0
ag5
ag5
aa(lp975
I9
aI0
ag5
ag5
aa(lp976
I9
aI0
ag5
ag5
aa(lp977
I9
aI0
ag5
ag5
aa(lp978
I9
aI0
ag5
ag5
aa(lp979
I9
aI0
ag5
ag5
aa(lp980
I9
aI0
ag5
ag5
aa(lp981
I9
aI0
ag5
ag5
aa(lp982
I9
aI0
ag5
ag5
aa(lp983
I9
aI0
ag5
ag5
aa(lp984
I9
aI0
ag5
ag5
aa(lp985
I9
aI0
ag5
ag5
aa(lp986
I9
aI0
ag5
ag5
aa(lp987
I9
aI0
ag5
ag50
aa(lp988
I9
aI0
ag5
ag50
aa(lp989
I9
aI0
ag5
ag50
aa(lp990
I9
aI0
ag5
ag50
aa(lp991
I9
aI0
ag5
ag50
aa(lp992
I9
aI0
ag5
ag50
aa(lp993
I9
aI0
ag5
ag50
aa(lp994
I9
aI0
ag5
ag50
aa(lp995
I9
aI0
ag5
ag50
aa(lp996
I9
aI0
ag5
ag50
aa(lp997
I9
aI0
ag5
ag50
aa(lp998
I9
aI0
ag5
ag50
aa(lp999
I9
aI0
ag5
ag50
aa(lp1000
I9
aI0
ag5
ag50
aa(lp1001
I9
aI0
ag5
ag50
aa(lp1002
I9
aI0
ag5
ag5
aa(lp1003
I9
aI0
ag5
ag5
aa(lp1004
I9
aI0
ag5
ag5
aa(lp1005
I9
aI0
ag5
ag5
aa(lp1006
I9
aI0
ag5
ag5
aa(lp1007
I9
aI0
ag5
ag5
aa(lp1008
I9
aI0
ag5
ag5
aa(lp1009
I9
aI0
ag5
ag5
aa(lp1010
I9
aI0
ag5
ag5
aa(lp1011
I9
aI0
ag5
ag5
aa(lp1012
I9
aI0
ag5
ag5
aa(lp1013
I9
aI0
ag5
ag5
aa(lp1014
I9
aI0
ag5
ag5
aa(lp1015
I9
aI0
ag5
ag5
aa(lp1016
I9
aI0
ag5
ag5
aa(lp1017
I9
aI0
ag5
ag5
aa(lp1018
I9
aI0
ag5
ag5
aa(lp1019
I9
aI0
ag5
ag5
aa(lp1020
I9
aI0
ag5
ag5
aa(lp1021
I9
aI0
ag5
ag5
aa(lp1022
I9
aI0
ag5
ag5
aa(lp1023
I9
aI0
ag5
ag5
aa(lp1024
I9
aI0
ag5
ag5
aa(lp1025
I9
aI0
ag5
ag5
aa(lp1026
I9
aI0
ag5
ag5
aa(lp1027
I9
aI0
ag5
ag5
aa(lp1028
I9
aI0
ag5
ag5
aa(lp1029
I9
aI0
ag5
ag5
aa(lp1030
I9
aI0
ag5
ag5
aa(lp1031
I9
aI0
ag5
ag5
aa(lp1032
I9
aI0
ag5
ag5
aa(lp1033
I9
aI0
ag5
ag5
aa(lp1034
I9
aI0
ag5
ag5
aa(lp1035
I9
aI0
ag5
ag5
aa(lp1036
I9
aI0
ag5
ag5
aa(lp1037
I9
aI0
ag5
ag5
aa(lp1038
I9
aI0
ag5
ag5
aa(lp1039
I9
aI0
ag5
ag5
aa(lp1040
I9
aI0
ag5
ag5
aa(lp1041
I9
aI0
ag5
ag5
aa(lp1042
I9
aI0
ag5
ag5
aa(lp1043
I9
aI0
ag5
ag5
aa(lp1044
I9
aI0
ag5
ag5
aa(lp1045
I9
aI0
ag5
ag5
aa(lp1046
I9
aI0
ag5
ag5
aa(lp1047
I10
aI0
ag5
ag5
aa(lp1048
I10
aI0
ag5
ag5
aa(lp1049
I10
aI0
ag5
ag5
aa(lp1050
I10
aI0
ag5
ag50
aa(lp1051
I10
aI0
ag5
ag5
aa(lp1052
I10
aI0
ag5
ag5
aa(lp1053
I10
aI0
ag5
ag5
aa(lp1054
I10
aI0
ag5
ag50
aa(lp1055
I10
aI0
ag5
ag50
aa(lp1056
I10
aI0
ag5
ag50
aa(lp1057
I10
aI0
ag5
ag5
aa(lp1058
I10
aI0
ag5
ag5
aa(lp1059
I10
aI0
ag5
ag5
aa(lp1060
I10
aI0
ag5
ag5
aa(lp1061
I10
aI0
ag5
ag5
aa(lp1062
I10
aI0
ag5
ag5
aa(lp1063
I10
aI0
ag5
ag5
aa(lp1064
I10
aI0
ag5
ag5
aa(lp1065
I10
aI0
ag5
ag5
aa(lp1066
I10
aI0
ag5
ag5
aa(lp1067
I10
aI0
ag5
ag5
aa(lp1068
I10
aI0
ag5
ag5
aa(lp1069
I10
aI0
ag5
ag5
aa(lp1070
I10
aI0
ag5
ag5
aa(lp1071
I10
aI0
ag5
ag5
aa(lp1072
I10
aI0
ag5
ag5
aa(lp1073
I10
aI0
ag5
ag50
aa(lp1074
I10
aI0
ag5
ag50
aa(lp1075
I10
aI0
ag5
ag50
aa(lp1076
I10
aI0
ag5
ag50
aa(lp1077
I10
aI0
ag5
ag50
aa(lp1078
I10
aI0
ag5
ag50
aa(lp1079
I10
aI0
ag5
ag50
aa(lp1080
I10
aI0
ag5
ag50
aa(lp1081
I10
aI0
ag5
ag50
aa(lp1082
I10
aI0
ag5
ag50
aa(lp1083
I10
aI0
ag5
ag50
aa(lp1084
I10
aI0
ag5
ag50
aa(lp1085
I10
aI0
ag5
ag5
aa(lp1086
I10
aI0
ag5
ag5
aa(lp1087
I10
aI0
ag5
ag5
aa(lp1088
I10
aI0
ag5
ag5
aa(lp1089
I10
aI0
ag5
ag5
aa(lp1090
I10
aI0
ag5
ag5
aa(lp1091
I10
aI0
ag5
ag5
aa(lp1092
I10
aI0
ag5
ag5
aa(lp1093
I10
aI0
ag5
ag5
aa(lp1094
I10
aI0
ag5
ag5
aa(lp1095
I10
aI0
ag5
ag5
aa(lp1096
I10
aI0
ag5
ag5
aa(lp1097
I10
aI0
ag5
ag5
aa(lp1098
I10
aI0
ag5
ag5
aa(lp1099
I10
aI0
ag5
ag5
aa(lp1100
I10
aI0
ag5
ag5
aa(lp1101
I10
aI0
ag5
ag5
aa(lp1102
I10
aI0
ag5
ag5
aa(lp1103
I10
aI0
ag5
ag5
aa(lp1104
I10
aI0
ag5
ag5
aa(lp1105
I10
aI0
ag5
ag5
aa(lp1106
I10
aI0
ag5
ag5
aa(lp1107
I10
aI0
ag5
ag5
aa(lp1108
I10
aI0
ag5
ag5
aa(lp1109
I10
aI0
ag5
ag5
aa(lp1110
I10
aI0
ag5
ag5
aa(lp1111
I10
aI0
ag5
ag50
aa(lp1112
I10
aI0
ag5
ag50
aa(lp1113
I10
aI0
ag5
ag50
aa(lp1114
I10
aI0
ag5
ag50
aa(lp1115
I10
aI0
ag5
ag5
aa(lp1116
I10
aI0
ag5
ag5
aa(lp1117
I10
aI0
ag5
ag5
aa(lp1118
I10
aI0
ag5
ag5
aa(lp1119
I10
aI0
ag5
ag5
aa(lp1120
I10
aI0
ag5
ag5
aa(lp1121
I10
aI0
ag5
ag5
aa(lp1122
I10
aI0
ag5
ag5
aa(lp1123
I10
aI0
ag5
ag5
aa(lp1124
I10
aI0
ag5
ag5
aa(lp1125
I10
aI0
ag5
ag50
aa(lp1126
I10
aI0
ag5
ag50
aa(lp1127
I10
aI0
ag5
ag50
aa(lp1128
I10
aI0
ag5
ag50
aa(lp1129
I10
aI0
ag5
ag50
aa(lp1130
I10
aI0
ag5
ag50
aa(lp1131
I10
aI0
ag5
ag50
aa(lp1132
I10
aI0
ag5
ag50
aa(lp1133
I10
aI0
ag5
ag50
aa(lp1134
I10
aI0
ag5
ag50
aa(lp1135
I10
aI0
ag5
ag50
aa(lp1136
I10
aI0
ag5
ag50
aa(lp1137
I10
aI0
ag5
ag50
aa(lp1138
I10
aI0
ag5
ag50
aa(lp1139
I10
aI0
ag5
ag50
aa(lp1140
I10
aI0
ag5
ag5
aa(lp1141
I10
aI0
ag5
ag5
aa(lp1142
I10
aI0
ag5
ag5
aa(lp1143
I10
aI0
ag5
ag5
aa(lp1144
I10
aI0
ag5
ag5
aa(lp1145
I10
aI0
ag5
ag5
aa(lp1146
I10
aI0
ag5
ag5
aa(lp1147
I10
aI0
ag5
ag5
aa(lp1148
I10
aI0
ag5
ag5
aa(lp1149
I10
aI0
ag5
ag5
aa(lp1150
I10
aI0
ag5
ag5
aa(lp1151
I10
aI0
ag5
ag5
aa(lp1152
I10
aI0
ag5
ag5
aa(lp1153
I10
aI0
ag5
ag5
aa(lp1154
I10
aI0
ag5
ag5
aa(lp1155
I10
aI0
ag5
ag5
aa(lp1156
I10
aI0
ag5
ag5
aa(lp1157
I10
aI0
ag5
ag5
aa(lp1158
I10
aI0
ag5
ag5
aa(lp1159
I10
aI0
ag5
ag5
aa(lp1160
I10
aI0
ag5
ag5
aa(lp1161
I10
aI0
ag5
ag5
aa(lp1162
I10
aI0
ag5
ag5
aa(lp1163
I10
aI0
ag5
ag5
aa(lp1164
I10
aI0
ag5
ag5
aa(lp1165
I10
aI0
ag5
ag5
aa(lp1166
I10
aI0
ag5
ag5
aa(lp1167
I10
aI0
ag5
ag5
aa(lp1168
I10
aI0
ag5
ag5
aa(lp1169
I10
aI0
ag5
ag5
aa(lp1170
I10
aI0
ag5
ag5
aa(lp1171
I10
aI0
ag5
ag5
aa(lp1172
I10
aI0
ag5
ag5
aa(lp1173
I10
aI0
ag5
ag5
aa(lp1174
I10
aI0
ag5
ag5
aa(lp1175
I10
aI0
ag5
ag5
aa(lp1176
I10
aI0
ag5
ag5
aa(lp1177
I10
aI0
ag5
ag5
aa(lp1178
I10
aI0
ag5
ag5
aa(lp1179
I10
aI0
ag5
ag5
aa(lp1180
I10
aI0
ag5
ag5
aa(lp1181
I10
aI0
ag5
ag5
aa(lp1182
I10
aI0
ag5
ag5
aa(lp1183
I10
aI0
ag5
ag5
aa(lp1184
I10
aI0
ag5
ag5
aa(lp1185
I10
aI0
ag5
ag5
aa(lp1186
I10
aI0
ag5
ag5
aa(lp1187
I11
aI4
ag5
ag5
aa(lp1188
I11
aI4
ag5
ag5
aa(lp1189
I11
aI4
ag5
ag5
aa(lp1190
I11
aI4
ag5
ag5
aa(lp1191
I12
aI3
ag4
ag5
aa(lp1192
I12
aI3
ag4
ag5
aa(lp1193
I12
aI3
ag4
ag5
aa(lp1194
I12
aI3
ag4
ag5
aa(lp1195
I12
aI3
ag4
ag5
aa(lp1196
I12
aI3
ag4
ag5
aa(lp1197
I12
aI3
ag4
ag5
aa(lp1198
I12
aI3
ag4
ag5
aa(lp1199
I12
aI3
ag4
ag5
aa(lp1200
I12
aI3
ag4
ag5
aa(lp1201
I12
aI3
ag4
ag5
aa(lp1202
I12
aI3
ag4
ag5
aa(lp1203
I12
aI3
ag4
ag5
aa(lp1204
I12
aI3
ag4
ag5
aa(lp1205
I12
aI3
ag4
ag5
aa(lp1206
I12
aI3
ag4
ag4
aa(lp1207
I12
aI3
ag4
ag4
aa(lp1208
I12
aI3
ag4
ag4
aa(lp1209
I12
aI3
ag4
ag4
aa(lp1210
I12
aI3
ag4
ag4
aa(lp1211
I12
aI3
ag4
ag4
aa(lp1212
I12
aI3
ag4
ag4
aa(lp1213
I12
aI3
ag4
ag4
aa(lp1214
I12
aI3
ag4
ag4
aa(lp1215
I12
aI3
ag4
ag4
aa(lp1216
I12
aI3
ag4
ag4
aa(lp1217
I12
aI3
ag4
ag4
aa(lp1218
I12
aI3
ag4
ag4
aa(lp1219
I12
aI3
ag4
ag4
aa(lp1220
I12
aI3
ag4
ag4
aa(lp1221
I12
aI3
ag4
ag4
aa(lp1222
I12
aI3
ag4
ag4
aa(lp1223
I12
aI3
ag4
ag4
aa(lp1224
I12
aI3
ag4
ag4
aa(lp1225
I12
aI3
ag4
ag4
aa(lp1226
I12
aI3
ag4
ag4
aa(lp1227
I12
aI3
ag4
ag4
aa(lp1228
I12
aI3
ag4
ag4
aa(lp1229
I12
aI3
ag4
ag4
aa(lp1230
I12
aI3
ag4
ag4
aa(lp1231
I12
aI3
ag4
ag4
aa(lp1232
I12
aI3
ag4
ag4
aa(lp1233
I12
aI3
ag4
ag4
aa(lp1234
I12
aI3
ag4
ag4
aa(lp1235
I12
aI3
ag4
ag4
aa(lp1236
I12
aI3
ag4
ag4
aa(lp1237
I12
aI3
ag4
ag4
aa(lp1238
I12
aI3
ag4
ag4
aa(lp1239
I12
aI3
ag4
ag4
aa(lp1240
I12
aI3
ag4
ag4
aa(lp1241
I12
aI3
ag4
ag4
aa(lp1242
I12
aI3
ag4
ag4
aa(lp1243
I12
aI3
ag4
ag4
aa(lp1244
I12
aI3
ag4
ag4
aa(lp1245
I12
aI3
ag4
ag4
aa(lp1246
I12
aI3
ag4
ag4
aa(lp1247
I12
aI3
ag4
ag4
aa(lp1248
I12
aI3
ag4
ag4
aa(lp1249
I12
aI3
ag4
ag4
aa(lp1250
I12
aI3
ag4
ag4
aa(lp1251
I12
aI3
ag4
ag4
aa(lp1252
I12
aI3
ag4
ag4
aa(lp1253
I12
aI3
ag4
ag4
aa(lp1254
I12
aI3
ag4
ag4
aa(lp1255
I12
aI3
ag4
ag4
aa(lp1256
I12
aI3
ag4
ag4
aa(lp1257
I12
aI3
ag4
ag4
aa(lp1258
I12
aI3
ag4
ag4
aa(lp1259
I12
aI3
ag4
ag4
aa(lp1260
I12
aI3
ag4
ag4
aa(lp1261
I13
aI3
ag4
ag5
aa(lp1262
I13
aI3
ag4
ag50
aa(lp1263
I13
aI3
ag4
ag5
aa(lp1264
I13
aI3
ag4
ag5
aa(lp1265
I13
aI3
ag4
ag5
aa(lp1266
I13
aI3
ag4
ag5
aa(lp1267
I13
aI3
ag4
ag5
aa(lp1268
I13
aI3
ag4
ag5
aa(lp1269
I13
aI3
ag4
ag5
aa(lp1270
I13
aI3
ag4
ag5
aa(lp1271
I13
aI3
ag4
ag5
aa(lp1272
I13
aI3
ag4
ag5
aa(lp1273
I13
aI3
ag4
ag4
aa(lp1274
I13
aI3
ag4
ag4
aa(lp1275
I13
aI3
ag4
ag4
aa(lp1276
I13
aI3
ag4
ag4
aa(lp1277
I13
aI3
ag4
ag4
aa(lp1278
I13
aI3
ag4
ag4
aa(lp1279
I13
aI3
ag4
ag4
aa(lp1280
I13
aI3
ag4
ag4
aa(lp1281
I13
aI3
ag4
ag4
aa(lp1282
I13
aI3
ag4
ag4
aa(lp1283
I13
aI3
ag4
ag4
aa(lp1284
I13
aI3
ag4
ag4
aa(lp1285
I13
aI3
ag4
ag4
aa(lp1286
I13
aI3
ag4
ag4
aa(lp1287
I13
aI3
ag4
ag4
aa(lp1288
I13
aI3
ag4
ag4
aa(lp1289
I13
aI3
ag4
ag4
aa(lp1290
I13
aI3
ag4
ag4
aa(lp1291
I13
aI3
ag4
ag4
aa(lp1292
I13
aI3
ag4
ag4
aa(lp1293
I13
aI3
ag4
ag4
aa(lp1294
I13
aI3
ag4
ag4
aa(lp1295
I13
aI3
ag4
ag4
aa(lp1296
I13
aI3
ag4
ag4
aa(lp1297
I13
aI3
ag4
ag4
aa(lp1298
I13
aI3
ag4
ag4
aa(lp1299
I13
aI3
ag4
ag4
aa(lp1300
I13
aI3
ag4
ag4
aa(lp1301
I13
aI3
ag4
ag4
aa(lp1302
I13
aI3
ag4
ag4
aa(lp1303
I13
aI3
ag4
ag4
aa(lp1304
I13
aI3
ag4
ag4
aa(lp1305
I13
aI3
ag4
ag4
aa(lp1306
I13
aI3
ag4
ag4
aa(lp1307
I13
aI3
ag4
ag4
aa(lp1308
I13
aI3
ag4
ag4
aa(lp1309
I13
aI3
ag4
ag4
aa(lp1310
I13
aI3
ag4
ag4
aa(lp1311
I13
aI3
ag4
ag4
aa(lp1312
I13
aI3
ag4
ag4
aa(lp1313
I13
aI3
ag4
ag4
aa(lp1314
I13
aI3
ag4
ag4
aa(lp1315
I13
aI3
ag4
ag4
aa(lp1316
I13
aI3
ag4
ag4
aa(lp1317
I13
aI3
ag4
ag4
aa(lp1318
I13
aI3
ag4
ag4
aa(lp1319
I13
aI3
ag4
ag4
aa(lp1320
I13
aI3
ag4
ag4
aa(lp1321
I13
aI3
ag4
ag4
aa(lp1322
I13
aI3
ag4
ag4
aa(lp1323
I13
aI3
ag4
ag4
aa(lp1324
I13
aI3
ag4
ag4
aa(lp1325
I13
aI3
ag4
ag4
aa(lp1326
I13
aI3
ag4
ag4
aa(lp1327
I13
aI3
ag4
ag4
aa(lp1328
I13
aI3
ag4
ag4
aa(lp1329
I13
aI3
ag4
ag4
aa(lp1330
I13
aI3
ag4
ag4
aa(lp1331
I13
aI3
ag4
ag4
aa(lp1332
I14
aI8
ag50
ag5
aa(lp1333
I14
aI8
ag50
ag5
aa(lp1334
I14
aI8
ag50
ag5
aa(lp1335
I14
aI8
ag50
ag5
aa(lp1336
I14
aI8
ag50
ag5
aa(lp1337
I14
aI8
ag50
ag5
aa(lp1338
I14
aI8
ag50
ag5
aa(lp1339
I14
aI8
ag50
ag5
aa(lp1340
I14
aI8
ag50
ag5
aa(lp1341
I14
aI8
ag50
ag5
aa(lp1342
I14
aI8
ag50
ag4
aa(lp1343
I14
aI8
ag50
ag5
aa(lp1344
I14
aI8
ag50
ag5
aa(lp1345
I14
aI8
ag50
ag5
aa(lp1346
I14
aI8
ag50
ag5
aa(lp1347
I14
aI8
ag50
ag5
aa(lp1348
I14
aI8
ag50
ag5
aa(lp1349
I14
aI8
ag50
ag5
aa(lp1350
I14
aI8
ag50
ag5
aa(lp1351
I14
aI8
ag50
ag5
aa(lp1352
I14
aI8
ag50
ag5
aa(lp1353
I14
aI8
ag50
ag5
aa(lp1354
I14
aI8
ag50
ag5
aa(lp1355
I14
aI8
ag50
ag5
aa(lp1356
I14
aI8
ag50
ag5
aa(lp1357
I14
aI8
ag50
ag5
aa(lp1358
I14
aI8
ag50
ag5
aa(lp1359
I14
aI8
ag50
ag50
aa(lp1360
I14
aI8
ag50
ag50
aa(lp1361
I14
aI8
ag50
ag50
aa(lp1362
I14
aI8
ag50
ag50
aa(lp1363
I14
aI8
ag50
ag50
aa(lp1364
I14
aI8
ag50
ag50
aa(lp1365
I14
aI8
ag50
ag50
aa(lp1366
I14
aI8
ag50
ag50
aa(lp1367
I14
aI8
ag50
ag50
aa(lp1368
I14
aI8
ag50
ag50
aa(lp1369
I14
aI8
ag50
ag50
aa(lp1370
I14
aI8
ag50
ag50
aa(lp1371
I14
aI8
ag50
ag50
aa(lp1372
I14
aI8
ag50
ag50
aa(lp1373
I14
aI8
ag50
ag50
aa(lp1374
I14
aI8
ag50
ag50
aa(lp1375
I14
aI8
ag50
ag50
aa(lp1376
I14
aI8
ag50
ag50
aa(lp1377
I14
aI8
ag50
ag50
aa(lp1378
I14
aI8
ag50
ag50
aa(lp1379
I14
aI8
ag50
ag50
aa(lp1380
I14
aI8
ag50
ag50
aa(lp1381
I14
aI8
ag50
ag50
aa(lp1382
I14
aI8
ag50
ag50
aa(lp1383
I14
aI8
ag50
ag50
aa(lp1384
I14
aI8
ag50
ag50
aa(lp1385
I14
aI8
ag50
ag50
aa(lp1386
I14
aI8
ag50
ag50
aa(lp1387
I14
aI8
ag50
ag50
aa(lp1388
I14
aI8
ag50
ag50
aa(lp1389
I14
aI8
ag50
ag50
aa(lp1390
I14
aI8
ag50
ag50
aa(lp1391
I14
aI8
ag50
ag50
aa(lp1392
I14
aI8
ag50
ag50
aa(lp1393
I14
aI8
ag50
ag50
aa(lp1394
I14
aI8
ag50
ag50
aa(lp1395
I14
aI8
ag50
ag50
aa(lp1396
I14
aI8
ag50
ag50
aa(lp1397
I14
aI8
ag50
ag50
aa(lp1398
I14
aI8
ag50
ag50
aa(lp1399
I14
aI8
ag50
ag50
aa(lp1400
I14
aI8
ag50
ag50
aa(lp1401
I14
aI8
ag50
ag50
aa(lp1402
I14
aI8
ag50
ag50
aa(lp1403
I14
aI8
ag50
ag50
aa(lp1404
I14
aI8
ag50
ag50
aa(lp1405
I14
aI8
ag50
ag50
aa(lp1406
I14
aI8
ag50
ag50
aa(lp1407
I14
aI8
ag50
ag50
aa(lp1408
I14
aI8
ag50
ag50
aa(lp1409
I14
aI8
ag50
ag50
aa(lp1410
I14
aI8
ag50
ag50
aa(lp1411
I14
aI8
ag50
ag50
aa(lp1412
I14
aI8
ag50
ag50
aa(lp1413
I14
aI8
ag50
ag50
aa(lp1414
I14
aI8
ag50
ag50
aa(lp1415
I14
aI8
ag50
ag50
aa(lp1416
I14
aI8
ag50
ag50
aa(lp1417
I14
aI8
ag50
ag50
aa(lp1418
I14
aI8
ag50
ag50
aa(lp1419
I14
aI8
ag50
ag50
aa(lp1420
I14
aI8
ag50
ag50
aa(lp1421
I14
aI8
ag50
ag50
aa(lp1422
I14
aI8
ag50
ag50
aa(lp1423
I14
aI8
ag50
ag50
aa(lp1424
I14
aI8
ag50
ag50
aa(lp1425
I14
aI8
ag50
ag50
aa(lp1426
I14
aI8
ag50
ag50
aa(lp1427
I14
aI8
ag50
ag50
aa(lp1428
I14
aI8
ag50
ag50
aa(lp1429
I15
aI6
ag5
ag4
aa(lp1430
I15
aI6
ag5
ag4
aa(lp1431
I15
aI6
ag5
ag4
aa(lp1432
I15
aI6
ag5
ag4
aa(lp1433
I15
aI6
ag5
ag4
aa(lp1434
I15
aI6
ag5
ag4
aa(lp1435
I15
aI6
ag5
ag4
aa(lp1436
I15
aI6
ag5
ag4
aa(lp1437
I15
aI6
ag5
ag4
aa(lp1438
I15
aI6
ag5
ag4
aa(lp1439
I15
aI6
ag5
ag4
aa(lp1440
I15
aI6
ag5
ag5
aa(lp1441
I15
aI6
ag5
ag5
aa(lp1442
I15
aI6
ag5
ag5
aa(lp1443
I15
aI6
ag5
ag5
aa(lp1444
I15
aI6
ag5
ag5
aa(lp1445
I15
aI6
ag5
ag5
aa(lp1446
I15
aI6
ag5
ag5
aa(lp1447
I15
aI6
ag5
ag5
aa(lp1448
I15
aI6
ag5
ag5
aa(lp1449
I15
aI6
ag5
ag5
aa(lp1450
I15
aI6
ag5
ag5
aa(lp1451
I15
aI6
ag5
ag5
aa(lp1452
I15
aI6
ag5
ag5
aa(lp1453
I15
aI6
ag5
ag5
aa(lp1454
I15
aI6
ag5
ag5
aa(lp1455
I15
aI6
ag5
ag5
aa(lp1456
I15
aI6
ag5
ag5
aa(lp1457
I15
aI6
ag5
ag5
aa(lp1458
I15
aI6
ag5
ag5
aa(lp1459
I15
aI6
ag5
ag5
aa(lp1460
I15
aI6
ag5
ag5
aa(lp1461
I15
aI6
ag5
ag5
aa(lp1462
I15
aI6
ag5
ag5
aa(lp1463
I15
aI6
ag5
ag4
aa(lp1464
I15
aI6
ag5
ag4
aa(lp1465
I15
aI6
ag5
ag4
aa(lp1466
I15
aI6
ag5
ag4
aa(lp1467
I15
aI6
ag5
ag4
aa(lp1468
I15
aI6
ag5
ag4
aa(lp1469
I15
aI6
ag5
ag4
aa(lp1470
I15
aI6
ag5
ag4
aa(lp1471
I15
aI6
ag5
ag5
aa(lp1472
I15
aI6
ag5
ag5
aa(lp1473
I15
aI6
ag5
ag5
aa(lp1474
I15
aI6
ag5
ag5
aa(lp1475
I15
aI6
ag5
ag5
aa(lp1476
I15
aI6
ag5
ag5
aa(lp1477
I15
aI6
ag5
ag5
aa(lp1478
I15
aI6
ag5
ag5
aa(lp1479
I15
aI6
ag5
ag5
aa(lp1480
I15
aI6
ag5
ag5
aa(lp1481
I15
aI6
ag5
ag5
aa(lp1482
I15
aI6
ag5
ag5
aa(lp1483
I15
aI6
ag5
ag5
aa(lp1484
I15
aI6
ag5
ag5
aa(lp1485
I15
aI6
ag5
ag5
aa(lp1486
I15
aI6
ag5
ag5
aa(lp1487
I15
aI6
ag5
ag5
aa(lp1488
I15
aI6
ag5
ag5
aa(lp1489
I15
aI6
ag5
ag5
aa(lp1490
I15
aI6
ag5
ag5
aa(lp1491
I15
aI6
ag5
ag5
aa(lp1492
I15
aI6
ag5
ag5
aa(lp1493
I15
aI6
ag5
ag5
aa(lp1494
I15
aI6
ag5
ag5
aa(lp1495
I15
aI6
ag5
ag5
aa(lp1496
I15
aI6
ag5
ag5
aa(lp1497
I15
aI6
ag5
ag5
aa(lp1498
I15
aI6
ag5
ag5
aa(lp1499
I15
aI6
ag5
ag5
aa(lp1500
I15
aI6
ag5
ag5
aa(lp1501
I15
aI6
ag5
ag5
aa(lp1502
I15
aI6
ag5
ag5
aa(lp1503
I15
aI6
ag5
ag5
aa(lp1504
I15
aI6
ag5
ag5
aa(lp1505
I15
aI6
ag5
ag5
aa(lp1506
I15
aI6
ag5
ag5
aa(lp1507
I15
aI6
ag5
ag5
aa(lp1508
I15
aI6
ag5
ag5
aa(lp1509
I15
aI6
ag5
ag5
aa(lp1510
I15
aI6
ag5
ag5
aa(lp1511
I15
aI6
ag5
ag5
aa(lp1512
I15
aI6
ag5
ag5
aa(lp1513
I15
aI6
ag5
ag5
aa(lp1514
I15
aI6
ag5
ag5
aa(lp1515
I15
aI6
ag5
ag5
aa(lp1516
I15
aI6
ag5
ag5
aa(lp1517
I15
aI6
ag5
ag5
aa(lp1518
I15
aI6
ag5
ag5
aa(lp1519
I15
aI6
ag5
ag5
aa(lp1520
I15
aI6
ag5
ag5
aa(lp1521
I15
aI6
ag5
ag5
aa(lp1522
I15
aI6
ag5
ag5
aa(lp1523
I15
aI6
ag5
ag5
aa(lp1524
I15
aI6
ag5
ag5
aa(lp1525
I15
aI6
ag5
ag5
aa(lp1526
I15
aI6
ag5
ag5
aa(lp1527
I15
aI6
ag5
ag5
aa(lp1528
I15
aI6
ag5
ag5
aa(lp1529
I15
aI6
ag5
ag5
aa(lp1530
I15
aI6
ag5
ag5
aa(lp1531
I15
aI6
ag5
ag5
aa(lp1532
I15
aI6
ag5
ag5
aa(lp1533
I15
aI6
ag5
ag5
aa(lp1534
I15
aI6
ag5
ag5
aa(lp1535
I15
aI6
ag5
ag5
aa(lp1536
I15
aI6
ag5
ag5
aa(lp1537
I15
aI6
ag5
ag5
aa(lp1538
I15
aI6
ag5
ag5
aa(lp1539
I15
aI6
ag5
ag5
aa(lp1540
I15
aI6
ag5
ag5
aa(lp1541
I15
aI6
ag5
ag5
aa(lp1542
I15
aI6
ag5
ag5
aa(lp1543
I15
aI6
ag5
ag5
aa(lp1544
I15
aI6
ag5
ag5
aa(lp1545
I15
aI6
ag5
ag5
aa(lp1546
I16
aI7
ag5
ag5
aa(lp1547
I16
aI7
ag5
ag5
aa(lp1548
I16
aI7
ag5
ag5
aa(lp1549
I16
aI7
ag5
ag5
aa(lp1550
I16
aI7
ag5
ag5
aa(lp1551
I16
aI7
ag5
ag5
aa(lp1552
I16
aI7
ag5
ag5
aa(lp1553
I16
aI7
ag5
ag5
aa(lp1554
I16
aI7
ag5
ag5
aa(lp1555
I16
aI7
ag5
ag5
aa(lp1556
I16
aI7
ag5
ag5
aa(lp1557
I16
aI7
ag5
ag5
aa(lp1558
I16
aI7
ag5
ag5
aa(lp1559
I16
aI7
ag5
ag5
aa(lp1560
I16
aI7
ag5
ag5
aa(lp1561
I16
aI7
ag5
ag5
aa(lp1562
I16
aI7
ag5
ag5
aa(lp1563
I16
aI7
ag5
ag5
aa(lp1564
I16
aI7
ag5
ag5
aa(lp1565
I16
aI7
ag5
ag5
aa(lp1566
I16
aI7
ag5
ag5
aa(lp1567
I16
aI7
ag5
ag5
aa(lp1568
I16
aI7
ag5
ag5
aa(lp1569
I16
aI7
ag5
ag5
aa(lp1570
I16
aI7
ag5
ag5
aa(lp1571
I16
aI7
ag5
ag5
aa(lp1572
I16
aI7
ag5
ag5
aa(lp1573
I16
aI7
ag5
ag5
aa(lp1574
I16
aI7
ag5
ag5
aa(lp1575
I16
aI7
ag5
ag5
aa(lp1576
I16
aI7
ag5
ag5
aa(lp1577
I16
aI7
ag5
ag50
aa(lp1578
I16
aI7
ag5
ag50
aa(lp1579
I16
aI7
ag5
ag50
aa(lp1580
I16
aI7
ag5
ag50
aa(lp1581
I16
aI7
ag5
ag50
aa(lp1582
I16
aI7
ag5
ag50
aa(lp1583
I16
aI7
ag5
ag50
aa(lp1584
I16
aI7
ag5
ag50
aa(lp1585
I16
aI7
ag5
ag50
aa(lp1586
I16
aI7
ag5
ag50
aa(lp1587
I16
aI7
ag5
ag50
aa(lp1588
I16
aI7
ag5
ag50
aa(lp1589
I16
aI7
ag5
ag50
aa(lp1590
I16
aI7
ag5
ag5
aa(lp1591
I16
aI7
ag5
ag5
aa(lp1592
I16
aI7
ag5
ag5
aa(lp1593
I16
aI7
ag5
ag5
aa(lp1594
I16
aI7
ag5
ag5
aa(lp1595
I16
aI7
ag5
ag5
aa(lp1596
I16
aI7
ag5
ag5
aa(lp1597
I16
aI7
ag5
ag5
aa(lp1598
I16
aI7
ag5
ag5
aa(lp1599
I16
aI7
ag5
ag5
aa(lp1600
I16
aI7
ag5
ag5
aa(lp1601
I16
aI7
ag5
ag5
aa(lp1602
I16
aI7
ag5
ag5
aa(lp1603
I16
aI7
ag5
ag5
aa(lp1604
I16
aI7
ag5
ag5
aa(lp1605
I16
aI7
ag5
ag5
aa(lp1606
I16
aI7
ag5
ag5
aa(lp1607
I16
aI7
ag5
ag5
aa(lp1608
I16
aI7
ag5
ag5
aa(lp1609
I16
aI7
ag5
ag5
aa(lp1610
I16
aI7
ag5
ag5
aa(lp1611
I16
aI7
ag5
ag5
aa(lp1612
I16
aI7
ag5
ag50
aa(lp1613
I16
aI7
ag5
ag50
aa(lp1614
I16
aI7
ag5
ag50
aa(lp1615
I16
aI7
ag5
ag50
aa(lp1616
I16
aI7
ag5
ag50
aa(lp1617
I16
aI7
ag5
ag50
aa(lp1618
I16
aI7
ag5
ag50
aa(lp1619
I16
aI7
ag5
ag50
aa(lp1620
I16
aI7
ag5
ag50
aa(lp1621
I16
aI7
ag5
ag5
aa(lp1622
I16
aI7
ag5
ag5
aa(lp1623
I16
aI7
ag5
ag5
aa(lp1624
I16
aI7
ag5
ag5
aa(lp1625
I16
aI7
ag5
ag5
aa(lp1626
I16
aI7
ag5
ag5
aa(lp1627
I16
aI7
ag5
ag5
aa(lp1628
I16
aI7
ag5
ag5
aa(lp1629
I16
aI7
ag5
ag5
aa(lp1630
I16
aI7
ag5
ag50
aa(lp1631
I16
aI7
ag5
ag50
aa(lp1632
I16
aI7
ag5
ag50
aa(lp1633
I16
aI7
ag5
ag50
aa(lp1634
I16
aI7
ag5
ag5
aa(lp1635
I16
aI7
ag5
ag50
aa(lp1636
I16
aI7
ag5
ag50
aa(lp1637
I16
aI7
ag5
ag50
aa(lp1638
I16
aI7
ag5
ag50
aa(lp1639
I16
aI7
ag5
ag50
aa(lp1640
I16
aI7
ag5
ag50
aa(lp1641
I16
aI7
ag5
ag50
aa(lp1642
I16
aI7
ag5
ag50
aa(lp1643
I16
aI7
ag5
ag50
aa(lp1644
I16
aI7
ag5
ag50
aa(lp1645
I16
aI7
ag5
ag50
aa(lp1646
I16
aI7
ag5
ag50
aa(lp1647
I16
aI7
ag5
ag5
aa(lp1648
I16
aI7
ag5
ag5
aa(lp1649
I16
aI7
ag5
ag5
aa(lp1650
I16
aI7
ag5
ag5
aa(lp1651
I16
aI7
ag5
ag5
aa(lp1652
I16
aI7
ag5
ag5
aa(lp1653
I16
aI7
ag5
ag5
aa(lp1654
I16
aI7
ag5
ag5
aa(lp1655
I16
aI7
ag5
ag5
aa(lp1656
I16
aI7
ag5
ag5
aa(lp1657
I16
aI7
ag5
ag5
aa(lp1658
I16
aI7
ag5
ag5
aa(lp1659
I16
aI7
ag5
ag5
aa(lp1660
I16
aI7
ag5
ag50
aa(lp1661
I16
aI7
ag5
ag50
aa(lp1662
I16
aI7
ag5
ag50
aa(lp1663
I16
aI7
ag5
ag50
aa(lp1664
I16
aI7
ag5
ag50
aa(lp1665
I16
aI7
ag5
ag5
aa(lp1666
I16
aI7
ag5
ag5
aa(lp1667
I16
aI7
ag5
ag5
aa(lp1668
I16
aI7
ag5
ag5
aa(lp1669
I16
aI7
ag5
ag5
aa(lp1670
I16
aI7
ag5
ag5
aa(lp1671
I16
aI7
ag5
ag5
aa(lp1672
I16
aI7
ag5
ag5
aa(lp1673
I16
aI7
ag5
ag5
aa(lp1674
I16
aI7
ag5
ag5
aa(lp1675
I16
aI7
ag5
ag5
aa(lp1676
I16
aI7
ag5
ag5
aa(lp1677
I16
aI7
ag5
ag5
aa(lp1678
I16
aI7
ag5
ag5
aa(lp1679
I16
aI7
ag5
ag5
aa(lp1680
I16
aI7
ag5
ag5
aa(lp1681
I16
aI7
ag5
ag5
aa(lp1682
I16
aI7
ag5
ag5
aa(lp1683
I16
aI7
ag5
ag5
aa(lp1684
I16
aI7
ag5
ag5
aa(lp1685
I16
aI7
ag5
ag5
aasS'results'
p1686
(lp1687
S'correct'
p1688
aS'unfinished'
p1689
ag1688
ag1688
ag1688
ag1688
ag1688
ag1688
ag1688
ag1688
ag1689
ag1688
ag1688
ag1688
ag1688
ag1688
ag1689
asS'times'
p1690
(lp1691
F42.003000000000156
aF140.00099999999998
aF111.99800000000005
aF63.0
aF123.00199999999995
aF76.99799999999982
aF95.00199999999995
aF135.0029999999997
aF123.99900000000025
aF120.0039999999999
aF140.0
aF2.999000000000251
aF69.0
aF69.9989999999998
aF96.00199999999995
aF116.00199999999995
aF139.99699999999984
as.