(dp0
S'history'
p1
(lp2
(lp3
I0
aI0
aS'B1'
p4
ag4
aa(lp5
I0
aI0
ag4
ag4
aa(lp6
I0
aI0
ag4
ag4
aa(lp7
I0
aI0
ag4
ag4
aa(lp8
I0
aI0
ag4
ag4
aa(lp9
I0
aI0
ag4
ag4
aa(lp10
I0
aI0
ag4
ag4
aa(lp11
I0
aI0
ag4
ag4
aa(lp12
I0
aI0
ag4
ag4
aa(lp13
I0
aI0
ag4
ag4
aa(lp14
I0
aI0
ag4
ag4
aa(lp15
I0
aI0
ag4
ag4
aa(lp16
I0
aI0
ag4
ag4
aa(lp17
I0
aI0
ag4
ag4
aa(lp18
I0
aI0
ag4
ag4
aa(lp19
I0
aI0
ag4
ag4
aa(lp20
I0
aI0
ag4
ag4
aa(lp21
I0
aI0
ag4
ag4
aa(lp22
I0
aI0
ag4
ag4
aa(lp23
I0
aI0
ag4
ag4
aa(lp24
I0
aI0
ag4
ag4
aa(lp25
I0
aI0
ag4
ag4
aa(lp26
I0
aI0
ag4
ag4
aa(lp27
I0
aI0
ag4
ag4
aa(lp28
I0
aI0
ag4
ag4
aa(lp29
I0
aI0
ag4
ag4
aa(lp30
I0
aI0
ag4
ag4
aa(lp31
I0
aI0
ag4
ag4
aa(lp32
I0
aI0
ag4
ag4
aa(lp33
I0
aI0
ag4
ag4
aa(lp34
I0
aI0
ag4
ag4
aa(lp35
I0
aI0
ag4
ag4
aa(lp36
I0
aI0
ag4
ag4
aa(lp37
I0
aI0
ag4
ag4
aa(lp38
I0
aI0
ag4
ag4
aa(lp39
I0
aI0
ag4
ag4
aa(lp40
I0
aI0
ag4
ag4
aa(lp41
I0
aI0
ag4
ag4
aa(lp42
I0
aI0
ag4
ag4
aa(lp43
I0
aI0
ag4
ag4
aa(lp44
I0
aI0
ag4
ag4
aa(lp45
I0
aI0
ag4
ag4
aa(lp46
I0
aI0
ag4
ag4
aa(lp47
I0
aI0
ag4
ag4
aa(lp48
I0
aI0
ag4
ag4
aa(lp49
I0
aI0
ag4
ag4
aa(lp50
I0
aI0
ag4
ag4
aa(lp51
I0
aI0
ag4
ag4
aa(lp52
I0
aI0
ag4
ag4
aa(lp53
I0
aI0
ag4
ag4
aa(lp54
I0
aI0
ag4
ag4
aa(lp55
I0
aI0
ag4
ag4
aa(lp56
I1
aI1
aS'B3'
p57
ag4
aa(lp58
I1
aI1
ag57
ag4
aa(lp59
I1
aI1
ag57
ag57
aa(lp60
I1
aI1
ag57
ag4
aa(lp61
I1
aI1
ag57
ag4
aa(lp62
I1
aI1
ag57
ag57
aa(lp63
I1
aI1
ag57
ag57
aa(lp64
I1
aI1
ag57
ag57
aa(lp65
I1
aI1
ag57
ag4
aa(lp66
I1
aI1
ag57
ag4
aa(lp67
I1
aI1
ag57
ag57
aa(lp68
I1
aI1
ag57
ag57
aa(lp69
I1
aI1
ag57
ag57
aa(lp70
I1
aI1
ag57
ag57
aa(lp71
I1
aI1
ag57
ag57
aa(lp72
I1
aI1
ag57
ag57
aa(lp73
I1
aI1
ag57
ag57
aa(lp74
I1
aI1
ag57
ag57
aa(lp75
I1
aI1
ag57
ag57
aa(lp76
I1
aI1
ag57
ag57
aa(lp77
I1
aI1
ag57
ag57
aa(lp78
I1
aI1
ag57
ag57
aa(lp79
I1
aI1
ag57
ag57
aa(lp80
I1
aI1
ag57
ag57
aa(lp81
I1
aI1
ag57
ag57
aa(lp82
I1
aI1
ag57
ag57
aa(lp83
I1
aI1
ag57
ag57
aa(lp84
I1
aI1
ag57
ag57
aa(lp85
I1
aI1
ag57
ag57
aa(lp86
I1
aI1
ag57
ag57
aa(lp87
I1
aI1
ag57
ag57
aa(lp88
I1
aI1
ag57
ag57
aa(lp89
I1
aI1
ag57
ag57
aa(lp90
I1
aI1
ag57
ag57
aa(lp91
I1
aI1
ag57
ag57
aa(lp92
I1
aI1
ag57
ag57
aa(lp93
I1
aI1
ag57
ag57
aa(lp94
I1
aI1
ag57
ag57
aa(lp95
I1
aI1
ag57
ag57
aa(lp96
I1
aI1
ag57
ag57
aa(lp97
I1
aI1
ag57
ag57
aa(lp98
I1
aI1
ag57
ag57
aa(lp99
I1
aI1
ag57
ag57
aa(lp100
I1
aI1
ag57
ag57
aa(lp101
I1
aI1
ag57
ag57
aa(lp102
I1
aI1
ag57
ag57
aa(lp103
I1
aI1
ag57
ag57
aa(lp104
I1
aI1
ag57
ag57
aa(lp105
I1
aI1
ag57
ag57
aa(lp106
I1
aI1
ag57
ag57
aa(lp107
I1
aI1
ag57
ag57
aa(lp108
I1
aI1
ag57
ag57
aa(lp109
I1
aI1
ag57
ag57
aa(lp110
I1
aI1
ag57
ag57
aa(lp111
I1
aI1
ag57
ag57
aa(lp112
I1
aI1
ag57
ag57
aa(lp113
I1
aI1
ag57
ag57
aa(lp114
I1
aI1
ag57
ag57
aa(lp115
I1
aI1
ag57
ag57
aa(lp116
I1
aI1
ag57
ag57
aa(lp117
I1
aI1
ag57
ag57
aa(lp118
I1
aI1
ag57
ag57
aa(lp119
I1
aI1
ag57
ag57
aa(lp120
I1
aI1
ag57
ag57
aa(lp121
I1
aI1
ag57
ag57
aa(lp122
I1
aI1
ag57
ag57
aa(lp123
I1
aI1
ag57
ag57
aa(lp124
I1
aI1
ag57
ag57
aa(lp125
I1
aI1
ag57
ag57
aa(lp126
I1
aI1
ag57
ag57
aa(lp127
I2
aI6
ag57
ag4
aa(lp128
I2
aI6
ag57
ag4
aa(lp129
I2
aI6
ag57
ag4
aa(lp130
I2
aI6
ag57
ag57
aa(lp131
I2
aI6
ag57
ag57
aa(lp132
I2
aI6
ag57
ag57
aa(lp133
I2
aI6
ag57
ag57
aa(lp134
I2
aI6
ag57
ag57
aa(lp135
I2
aI6
ag57
ag57
aa(lp136
I2
aI6
ag57
ag57
aa(lp137
I2
aI6
ag57
ag57
aa(lp138
I2
aI6
ag57
ag57
aa(lp139
I2
aI6
ag57
ag4
aa(lp140
I2
aI6
ag57
ag4
aa(lp141
I2
aI6
ag57
ag4
aa(lp142
I2
aI6
ag57
ag4
aa(lp143
I2
aI6
ag57
ag57
aa(lp144
I2
aI6
ag57
ag57
aa(lp145
I2
aI6
ag57
ag57
aa(lp146
I2
aI6
ag57
ag57
aa(lp147
I2
aI6
ag57
ag57
aa(lp148
I2
aI6
ag57
ag57
aa(lp149
I2
aI6
ag57
ag57
aa(lp150
I2
aI6
ag57
ag57
aa(lp151
I2
aI6
ag57
ag57
aa(lp152
I2
aI6
ag57
ag57
aa(lp153
I2
aI6
ag57
ag57
aa(lp154
I2
aI6
ag57
ag57
aa(lp155
I2
aI6
ag57
ag57
aa(lp156
I2
aI6
ag57
ag57
aa(lp157
I2
aI6
ag57
ag57
aa(lp158
I2
aI6
ag57
ag57
aa(lp159
I2
aI6
ag57
ag57
aa(lp160
I2
aI6
ag57
ag57
aa(lp161
I2
aI6
ag57
ag57
aa(lp162
I2
aI6
ag57
ag57
aa(lp163
I2
aI6
ag57
ag57
aa(lp164
I2
aI6
ag57
ag57
aa(lp165
I2
aI6
ag57
ag57
aa(lp166
I2
aI6
ag57
ag57
aa(lp167
I2
aI6
ag57
ag57
aa(lp168
I2
aI6
ag57
ag57
aa(lp169
I2
aI6
ag57
ag57
aa(lp170
I2
aI6
ag57
ag57
aa(lp171
I2
aI6
ag57
ag57
aa(lp172
I2
aI6
ag57
ag57
aa(lp173
I2
aI6
ag57
ag57
aa(lp174
I2
aI6
ag57
ag57
aa(lp175
I2
aI6
ag57
ag4
aa(lp176
I2
aI6
ag57
ag57
aa(lp177
I2
aI6
ag57
ag57
aa(lp178
I2
aI6
ag57
ag57
aa(lp179
I2
aI6
ag57
ag57
aa(lp180
I2
aI6
ag57
ag57
aa(lp181
I2
aI6
ag57
ag57
aa(lp182
I2
aI6
ag57
ag57
aa(lp183
I2
aI6
ag57
ag57
aa(lp184
I2
aI6
ag57
ag4
aa(lp185
I2
aI6
ag57
ag4
aa(lp186
I2
aI6
ag57
ag57
aa(lp187
I2
aI6
ag57
ag57
aa(lp188
I2
aI6
ag57
ag57
aa(lp189
I2
aI6
ag57
ag57
aa(lp190
I2
aI6
ag57
ag57
aa(lp191
I2
aI6
ag57
ag57
aa(lp192
I2
aI6
ag57
ag57
aa(lp193
I2
aI6
ag57
ag57
aa(lp194
I2
aI6
ag57
ag57
aa(lp195
I2
aI6
ag57
ag57
aa(lp196
I2
aI6
ag57
ag57
aa(lp197
I3
aI8
ag57
ag4
aa(lp198
I3
aI8
ag57
ag4
aa(lp199
I3
aI8
ag57
aS'B2'
p200
aa(lp201
I3
aI8
ag57
ag200
aa(lp202
I3
aI8
ag57
ag200
aa(lp203
I3
aI8
ag57
ag200
aa(lp204
I3
aI8
ag57
ag200
aa(lp205
I3
aI8
ag57
ag200
aa(lp206
I3
aI8
ag57
ag4
aa(lp207
I3
aI8
ag57
ag57
aa(lp208
I3
aI8
ag57
ag57
aa(lp209
I3
aI8
ag57
ag57
aa(lp210
I3
aI8
ag57
ag57
aa(lp211
I3
aI8
ag57
ag57
aa(lp212
I3
aI8
ag57
ag57
aa(lp213
I3
aI8
ag57
ag57
aa(lp214
I3
aI8
ag57
ag57
aa(lp215
I3
aI8
ag57
ag57
aa(lp216
I3
aI8
ag57
ag57
aa(lp217
I3
aI8
ag57
ag57
aa(lp218
I3
aI8
ag57
ag57
aa(lp219
I3
aI8
ag57
ag57
aa(lp220
I3
aI8
ag57
ag57
aa(lp221
I3
aI8
ag57
ag57
aa(lp222
I3
aI8
ag57
ag57
aa(lp223
I3
aI8
ag57
ag57
aa(lp224
I3
aI8
ag57
ag4
aa(lp225
I3
aI8
ag57
ag4
aa(lp226
I3
aI8
ag57
ag4
aa(lp227
I3
aI8
ag57
ag4
aa(lp228
I3
aI8
ag57
ag4
aa(lp229
I3
aI8
ag57
ag4
aa(lp230
I3
aI8
ag57
ag4
aa(lp231
I3
aI8
ag57
ag4
aa(lp232
I3
aI8
ag57
ag4
aa(lp233
I3
aI8
ag57
ag4
aa(lp234
I3
aI8
ag57
ag4
aa(lp235
I3
aI8
ag57
ag4
aa(lp236
I3
aI8
ag57
ag4
aa(lp237
I3
aI8
ag57
ag4
aa(lp238
I3
aI8
ag57
ag4
aa(lp239
I3
aI8
ag57
ag4
aa(lp240
I3
aI8
ag57
ag4
aa(lp241
I3
aI8
ag57
ag4
aa(lp242
I3
aI8
ag57
ag4
aa(lp243
I3
aI8
ag57
ag4
aa(lp244
I3
aI8
ag57
ag57
aa(lp245
I3
aI8
ag57
ag57
aa(lp246
I3
aI8
ag57
ag57
aa(lp247
I3
aI8
ag57
ag57
aa(lp248
I3
aI8
ag57
ag57
aa(lp249
I3
aI8
ag57
ag57
aa(lp250
I3
aI8
ag57
ag57
aa(lp251
I3
aI8
ag57
ag57
aa(lp252
I3
aI8
ag57
ag57
aa(lp253
I3
aI8
ag57
ag57
aa(lp254
I3
aI8
ag57
ag4
aa(lp255
I3
aI8
ag57
ag4
aa(lp256
I3
aI8
ag57
ag4
aa(lp257
I3
aI8
ag57
ag4
aa(lp258
I3
aI8
ag57
ag4
aa(lp259
I3
aI8
ag57
ag4
aa(lp260
I3
aI8
ag57
ag4
aa(lp261
I3
aI8
ag57
ag4
aa(lp262
I3
aI8
ag57
ag4
aa(lp263
I3
aI8
ag57
ag4
aa(lp264
I3
aI8
ag57
ag4
aa(lp265
I3
aI8
ag57
ag4
aa(lp266
I3
aI8
ag57
ag4
aa(lp267
I3
aI8
ag57
ag4
aa(lp268
I4
aI7
ag4
ag4
aa(lp269
I4
aI7
ag4
ag57
aa(lp270
I4
aI7
ag4
ag57
aa(lp271
I4
aI7
ag4
ag57
aa(lp272
I4
aI7
ag4
ag57
aa(lp273
I4
aI7
ag4
ag57
aa(lp274
I4
aI7
ag4
ag57
aa(lp275
I4
aI7
ag4
ag4
aa(lp276
I4
aI7
ag4
ag4
aa(lp277
I4
aI7
ag4
ag4
aa(lp278
I4
aI7
ag4
ag4
aa(lp279
I4
aI7
ag4
ag4
aa(lp280
I4
aI7
ag4
ag4
aa(lp281
I4
aI7
ag4
ag4
aa(lp282
I4
aI7
ag4
ag4
aa(lp283
I4
aI7
ag4
ag4
aa(lp284
I4
aI7
ag4
ag4
aa(lp285
I4
aI7
ag4
ag4
aa(lp286
I4
aI7
ag4
ag4
aa(lp287
I4
aI7
ag4
ag57
aa(lp288
I4
aI7
ag4
ag57
aa(lp289
I4
aI7
ag4
ag57
aa(lp290
I4
aI7
ag4
ag4
aa(lp291
I4
aI7
ag4
ag4
aa(lp292
I4
aI7
ag4
ag4
aa(lp293
I4
aI7
ag4
ag4
aa(lp294
I4
aI7
ag4
ag4
aa(lp295
I4
aI7
ag4
ag4
aa(lp296
I4
aI7
ag4
ag4
aa(lp297
I4
aI7
ag4
ag4
aa(lp298
I4
aI7
ag4
ag4
aa(lp299
I4
aI7
ag4
ag4
aa(lp300
I4
aI7
ag4
ag4
aa(lp301
I4
aI7
ag4
ag4
aa(lp302
I4
aI7
ag4
ag57
aa(lp303
I4
aI7
ag4
ag57
aa(lp304
I4
aI7
ag4
ag4
aa(lp305
I4
aI7
ag4
ag4
aa(lp306
I4
aI7
ag4
ag57
aa(lp307
I4
aI7
ag4
ag57
aa(lp308
I4
aI7
ag4
ag57
aa(lp309
I4
aI7
ag4
ag57
aa(lp310
I4
aI7
ag4
ag57
aa(lp311
I4
aI7
ag4
ag57
aa(lp312
I4
aI7
ag4
ag57
aa(lp313
I4
aI7
ag4
ag57
aa(lp314
I4
aI7
ag4
ag57
aa(lp315
I4
aI7
ag4
ag57
aa(lp316
I4
aI7
ag4
ag57
aa(lp317
I4
aI7
ag4
ag57
aa(lp318
I4
aI7
ag4
ag57
aa(lp319
I4
aI7
ag4
ag4
aa(lp320
I4
aI7
ag4
ag4
aa(lp321
I4
aI7
ag4
ag4
aa(lp322
I4
aI7
ag4
ag4
aa(lp323
I4
aI7
ag4
ag4
aa(lp324
I4
aI7
ag4
ag4
aa(lp325
I4
aI7
ag4
ag4
aa(lp326
I4
aI7
ag4
ag4
aa(lp327
I4
aI7
ag4
ag4
aa(lp328
I4
aI7
ag4
ag4
aa(lp329
I4
aI7
ag4
ag4
aa(lp330
I4
aI7
ag4
ag4
aa(lp331
I4
aI7
ag4
ag4
aa(lp332
I4
aI7
ag4
ag4
aa(lp333
I4
aI7
ag4
ag4
aa(lp334
I4
aI7
ag4
ag4
aa(lp335
I4
aI7
ag4
ag4
aa(lp336
I4
aI7
ag4
ag4
aa(lp337
I4
aI7
ag4
ag4
aa(lp338
I5
aI8
ag57
ag200
aa(lp339
I5
aI8
ag57
ag200
aa(lp340
I5
aI8
ag57
ag200
aa(lp341
I5
aI8
ag57
ag200
aa(lp342
I5
aI8
ag57
ag57
aa(lp343
I5
aI8
ag57
ag57
aa(lp344
I5
aI8
ag57
ag57
aa(lp345
I5
aI8
ag57
ag57
aa(lp346
I5
aI8
ag57
ag57
aa(lp347
I5
aI8
ag57
ag57
aa(lp348
I5
aI8
ag57
ag57
aa(lp349
I5
aI8
ag57
ag57
aa(lp350
I5
aI8
ag57
ag57
aa(lp351
I5
aI8
ag57
ag57
aa(lp352
I5
aI8
ag57
ag57
aa(lp353
I5
aI8
ag57
ag4
aa(lp354
I5
aI8
ag57
ag4
aa(lp355
I5
aI8
ag57
ag4
aa(lp356
I5
aI8
ag57
ag4
aa(lp357
I5
aI8
ag57
ag4
aa(lp358
I5
aI8
ag57
ag4
aa(lp359
I5
aI8
ag57
ag4
aa(lp360
I5
aI8
ag57
ag4
aa(lp361
I5
aI8
ag57
ag4
aa(lp362
I5
aI8
ag57
ag4
aa(lp363
I5
aI8
ag57
ag4
aa(lp364
I5
aI8
ag57
ag4
aa(lp365
I5
aI8
ag57
ag4
aa(lp366
I5
aI8
ag57
ag4
aa(lp367
I5
aI8
ag57
ag57
aa(lp368
I5
aI8
ag57
ag4
aa(lp369
I5
aI8
ag57
ag4
aa(lp370
I5
aI8
ag57
ag4
aa(lp371
I5
aI8
ag57
ag4
aa(lp372
I5
aI8
ag57
ag4
aa(lp373
I5
aI8
ag57
ag4
aa(lp374
I5
aI8
ag57
ag4
aa(lp375
I5
aI8
ag57
ag4
aa(lp376
I5
aI8
ag57
ag4
aa(lp377
I5
aI8
ag57
ag4
aa(lp378
I5
aI8
ag57
ag4
aa(lp379
I5
aI8
ag57
ag57
aa(lp380
I5
aI8
ag57
ag57
aa(lp381
I5
aI8
ag57
ag57
aa(lp382
I5
aI8
ag57
ag57
aa(lp383
I5
aI8
ag57
ag57
aa(lp384
I5
aI8
ag57
ag57
aa(lp385
I5
aI8
ag57
ag57
aa(lp386
I5
aI8
ag57
ag4
aa(lp387
I5
aI8
ag57
ag57
aa(lp388
I5
aI8
ag57
ag57
aa(lp389
I5
aI8
ag57
ag57
aa(lp390
I5
aI8
ag57
ag57
aa(lp391
I5
aI8
ag57
ag57
aa(lp392
I5
aI8
ag57
ag57
aa(lp393
I5
aI8
ag57
ag57
aa(lp394
I5
aI8
ag57
ag4
aa(lp395
I5
aI8
ag57
ag4
aa(lp396
I5
aI8
ag57
ag4
aa(lp397
I5
aI8
ag57
ag4
aa(lp398
I5
aI8
ag57
ag4
aa(lp399
I5
aI8
ag57
ag4
aa(lp400
I5
aI8
ag57
ag4
aa(lp401
I5
aI8
ag57
ag4
aa(lp402
I5
aI8
ag57
ag4
aa(lp403
I5
aI8
ag57
ag4
aa(lp404
I5
aI8
ag57
ag4
aa(lp405
I5
aI8
ag57
ag4
aa(lp406
I5
aI8
ag57
ag57
aa(lp407
I5
aI8
ag57
ag57
aa(lp408
I6
aI6
ag57
ag57
aa(lp409
I6
aI6
ag57
ag57
aa(lp410
I6
aI6
ag57
ag57
aa(lp411
I6
aI6
ag57
ag57
aa(lp412
I6
aI6
ag57
ag57
aa(lp413
I6
aI6
ag57
ag57
aa(lp414
I6
aI6
ag57
ag57
aa(lp415
I6
aI6
ag57
ag57
aa(lp416
I6
aI6
ag57
ag57
aa(lp417
I6
aI6
ag57
ag57
aa(lp418
I6
aI6
ag57
ag57
aa(lp419
I6
aI6
ag57
ag57
aa(lp420
I6
aI6
ag57
ag57
aa(lp421
I6
aI6
ag57
ag57
aa(lp422
I6
aI6
ag57
ag57
aa(lp423
I6
aI6
ag57
ag57
aa(lp424
I6
aI6
ag57
ag57
aa(lp425
I6
aI6
ag57
ag57
aa(lp426
I6
aI6
ag57
ag57
aa(lp427
I6
aI6
ag57
ag57
aa(lp428
I6
aI6
ag57
ag57
aa(lp429
I6
aI6
ag57
ag57
aa(lp430
I6
aI6
ag57
ag57
aa(lp431
I6
aI6
ag57
ag57
aa(lp432
I6
aI6
ag57
ag57
aa(lp433
I6
aI6
ag57
ag57
aa(lp434
I6
aI6
ag57
ag57
aa(lp435
I6
aI6
ag57
ag57
aa(lp436
I6
aI6
ag57
ag57
aa(lp437
I6
aI6
ag57
ag57
aa(lp438
I6
aI6
ag57
ag57
aa(lp439
I6
aI6
ag57
ag57
aa(lp440
I6
aI6
ag57
ag57
aa(lp441
I6
aI6
ag57
ag57
aa(lp442
I6
aI6
ag57
ag57
aa(lp443
I6
aI6
ag57
ag57
aa(lp444
I6
aI6
ag57
ag57
aa(lp445
I6
aI6
ag57
ag57
aa(lp446
I6
aI6
ag57
ag57
aa(lp447
I6
aI6
ag57
ag57
aa(lp448
I6
aI6
ag57
ag57
aa(lp449
I6
aI6
ag57
ag57
aa(lp450
I6
aI6
ag57
ag57
aa(lp451
I6
aI6
ag57
ag57
aa(lp452
I6
aI6
ag57
ag4
aa(lp453
I6
aI6
ag57
ag4
aa(lp454
I6
aI6
ag57
ag4
aa(lp455
I6
aI6
ag57
ag4
aa(lp456
I6
aI6
ag57
ag4
aa(lp457
I6
aI6
ag57
ag4
aa(lp458
I6
aI6
ag57
ag4
aa(lp459
I6
aI6
ag57
ag4
aa(lp460
I6
aI6
ag57
ag4
aa(lp461
I6
aI6
ag57
ag4
aa(lp462
I6
aI6
ag57
ag4
aa(lp463
I6
aI6
ag57
ag4
aa(lp464
I6
aI6
ag57
ag57
aa(lp465
I6
aI6
ag57
ag57
aa(lp466
I6
aI6
ag57
ag57
aa(lp467
I6
aI6
ag57
ag57
aa(lp468
I6
aI6
ag57
ag57
aa(lp469
I6
aI6
ag57
ag57
aa(lp470
I6
aI6
ag57
ag57
aa(lp471
I6
aI6
ag57
ag57
aa(lp472
I6
aI6
ag57
ag57
aa(lp473
I6
aI6
ag57
ag57
aa(lp474
I6
aI6
ag57
ag57
aa(lp475
I6
aI6
ag57
ag57
aa(lp476
I6
aI6
ag57
ag57
aa(lp477
I6
aI6
ag57
ag57
aa(lp478
I7
aI4
ag4
ag4
aa(lp479
I7
aI4
ag4
ag4
aa(lp480
I7
aI4
ag4
ag4
aa(lp481
I7
aI4
ag4
ag4
aa(lp482
I7
aI4
ag4
ag4
aa(lp483
I7
aI4
ag4
ag4
aa(lp484
I7
aI4
ag4
ag4
aa(lp485
I7
aI4
ag4
ag57
aa(lp486
I7
aI4
ag4
ag57
aa(lp487
I7
aI4
ag4
ag4
aa(lp488
I7
aI4
ag4
ag4
aa(lp489
I7
aI4
ag4
ag4
aa(lp490
I7
aI4
ag4
ag57
aa(lp491
I7
aI4
ag4
ag57
aa(lp492
I7
aI4
ag4
ag57
aa(lp493
I7
aI4
ag4
ag57
aa(lp494
I7
aI4
ag4
ag57
aa(lp495
I7
aI4
ag4
ag4
aa(lp496
I7
aI4
ag4
ag4
aa(lp497
I7
aI4
ag4
ag4
aa(lp498
I7
aI4
ag4
ag57
aa(lp499
I7
aI4
ag4
ag57
aa(lp500
I7
aI4
ag4
ag57
aa(lp501
I7
aI4
ag4
ag57
aa(lp502
I7
aI4
ag4
ag57
aa(lp503
I7
aI4
ag4
ag4
aa(lp504
I7
aI4
ag4
ag57
aa(lp505
I7
aI4
ag4
ag57
aa(lp506
I7
aI4
ag4
ag57
aa(lp507
I7
aI4
ag4
ag57
aa(lp508
I7
aI4
ag4
ag57
aa(lp509
I7
aI4
ag4
ag57
aa(lp510
I7
aI4
ag4
ag4
aa(lp511
I7
aI4
ag4
ag4
aa(lp512
I7
aI4
ag4
ag4
aa(lp513
I7
aI4
ag4
ag4
aa(lp514
I7
aI4
ag4
ag200
aa(lp515
I7
aI4
ag4
ag200
aa(lp516
I7
aI4
ag4
ag4
aa(lp517
I7
aI4
ag4
ag4
aa(lp518
I7
aI4
ag4
ag4
aa(lp519
I7
aI4
ag4
ag4
aa(lp520
I7
aI4
ag4
ag4
aa(lp521
I7
aI4
ag4
ag4
aa(lp522
I7
aI4
ag4
ag4
aa(lp523
I7
aI4
ag4
ag4
aa(lp524
I7
aI4
ag4
ag4
aa(lp525
I7
aI4
ag4
ag4
aa(lp526
I7
aI4
ag4
ag4
aa(lp527
I7
aI4
ag4
ag4
aa(lp528
I7
aI4
ag4
ag4
aa(lp529
I7
aI4
ag4
ag4
aa(lp530
I7
aI4
ag4
ag4
aa(lp531
I7
aI4
ag4
ag4
aa(lp532
I7
aI4
ag4
ag4
aa(lp533
I7
aI4
ag4
ag4
aa(lp534
I7
aI4
ag4
ag4
aa(lp535
I7
aI4
ag4
ag4
aa(lp536
I7
aI4
ag4
ag4
aa(lp537
I7
aI4
ag4
ag4
aa(lp538
I7
aI4
ag4
ag4
aa(lp539
I7
aI4
ag4
ag4
aa(lp540
I7
aI4
ag4
ag57
aa(lp541
I7
aI4
ag4
ag4
aa(lp542
I7
aI4
ag4
ag4
aa(lp543
I7
aI4
ag4
ag4
aa(lp544
I7
aI4
ag4
ag4
aa(lp545
I7
aI4
ag4
ag4
aa(lp546
I7
aI4
ag4
ag4
aa(lp547
I7
aI4
ag4
ag4
aa(lp548
I8
aI4
ag4
ag4
aa(lp549
I8
aI4
ag4
ag4
aa(lp550
I8
aI4
ag4
ag4
aa(lp551
I8
aI4
ag4
ag4
aa(lp552
I8
aI4
ag4
ag4
aa(lp553
I8
aI4
ag4
ag4
aa(lp554
I8
aI4
ag4
ag4
aa(lp555
I8
aI4
ag4
ag4
aa(lp556
I8
aI4
ag4
ag57
aa(lp557
I8
aI4
ag4
ag57
aa(lp558
I8
aI4
ag4
ag57
aa(lp559
I8
aI4
ag4
ag57
aa(lp560
I8
aI4
ag4
ag57
aa(lp561
I8
aI4
ag4
ag57
aa(lp562
I8
aI4
ag4
ag57
aa(lp563
I8
aI4
ag4
ag57
aa(lp564
I8
aI4
ag4
ag57
aa(lp565
I8
aI4
ag4
ag57
aa(lp566
I8
aI4
ag4
ag57
aa(lp567
I8
aI4
ag4
ag57
aa(lp568
I8
aI4
ag4
ag4
aa(lp569
I8
aI4
ag4
ag4
aa(lp570
I8
aI4
ag4
ag4
aa(lp571
I8
aI4
ag4
ag57
aa(lp572
I8
aI4
ag4
ag57
aa(lp573
I8
aI4
ag4
ag57
aa(lp574
I8
aI4
ag4
ag57
aa(lp575
I8
aI4
ag4
ag4
aa(lp576
I8
aI4
ag4
ag4
aa(lp577
I8
aI4
ag4
ag4
aa(lp578
I8
aI4
ag4
ag4
aa(lp579
I8
aI4
ag4
ag4
aa(lp580
I8
aI4
ag4
ag4
aa(lp581
I8
aI4
ag4
ag4
aa(lp582
I8
aI4
ag4
ag4
aa(lp583
I8
aI4
ag4
ag4
aa(lp584
I8
aI4
ag4
ag4
aa(lp585
I8
aI4
ag4
ag4
aa(lp586
I8
aI4
ag4
ag4
aa(lp587
I8
aI4
ag4
ag4
aa(lp588
I8
aI4
ag4
ag4
aa(lp589
I8
aI4
ag4
ag4
aa(lp590
I8
aI4
ag4
ag4
aa(lp591
I8
aI4
ag4
ag4
aa(lp592
I8
aI4
ag4
ag4
aa(lp593
I8
aI4
ag4
ag4
aa(lp594
I8
aI4
ag4
ag4
aa(lp595
I8
aI4
ag4
ag4
aa(lp596
I8
aI4
ag4
ag4
aa(lp597
I8
aI4
ag4
ag4
aa(lp598
I8
aI4
ag4
ag4
aa(lp599
I8
aI4
ag4
ag4
aa(lp600
I8
aI4
ag4
ag4
aa(lp601
I8
aI4
ag4
ag4
aa(lp602
I8
aI4
ag4
ag4
aa(lp603
I8
aI4
ag4
ag4
aa(lp604
I8
aI4
ag4
ag4
aa(lp605
I8
aI4
ag4
ag4
aa(lp606
I8
aI4
ag4
ag4
aa(lp607
I8
aI4
ag4
ag4
aa(lp608
I8
aI4
ag4
ag4
aa(lp609
I8
aI4
ag4
ag4
aa(lp610
I8
aI4
ag4
ag4
aa(lp611
I8
aI4
ag4
ag4
aa(lp612
I8
aI4
ag4
ag4
aa(lp613
I8
aI4
ag4
ag4
aa(lp614
I9
aI2
ag200
ag57
aa(lp615
I9
aI2
ag200
ag57
aa(lp616
I9
aI2
ag200
ag57
aa(lp617
I9
aI2
ag200
ag57
aa(lp618
I9
aI2
ag200
ag200
aa(lp619
I9
aI2
ag200
ag200
aa(lp620
I9
aI2
ag200
ag200
aa(lp621
I9
aI2
ag200
ag57
aa(lp622
I9
aI2
ag200
ag57
aa(lp623
I9
aI2
ag200
ag200
aa(lp624
I9
aI2
ag200
ag200
aa(lp625
I9
aI2
ag200
ag200
aa(lp626
I9
aI2
ag200
ag200
aa(lp627
I9
aI2
ag200
ag200
aa(lp628
I9
aI2
ag200
ag200
aa(lp629
I9
aI2
ag200
ag200
aa(lp630
I9
aI2
ag200
ag200
aa(lp631
I9
aI2
ag200
ag200
aa(lp632
I9
aI2
ag200
ag200
aa(lp633
I9
aI2
ag200
ag200
aa(lp634
I9
aI2
ag200
ag200
aa(lp635
I9
aI2
ag200
ag200
aa(lp636
I9
aI2
ag200
ag200
aa(lp637
I9
aI2
ag200
ag200
aa(lp638
I9
aI2
ag200
ag200
aa(lp639
I9
aI2
ag200
ag200
aa(lp640
I9
aI2
ag200
ag200
aa(lp641
I9
aI2
ag200
ag200
aa(lp642
I9
aI2
ag200
ag200
aa(lp643
I9
aI2
ag200
ag200
aa(lp644
I9
aI2
ag200
ag200
aa(lp645
I9
aI2
ag200
ag200
aa(lp646
I9
aI2
ag200
ag200
aa(lp647
I9
aI2
ag200
ag200
aa(lp648
I9
aI2
ag200
ag200
aa(lp649
I9
aI2
ag200
ag200
aa(lp650
I9
aI2
ag200
ag200
aa(lp651
I9
aI2
ag200
ag200
aa(lp652
I9
aI2
ag200
ag200
aa(lp653
I9
aI2
ag200
ag200
aa(lp654
I9
aI2
ag200
ag200
aa(lp655
I9
aI2
ag200
ag200
aa(lp656
I9
aI2
ag200
ag200
aa(lp657
I9
aI2
ag200
ag200
aa(lp658
I10
aI3
ag200
ag4
aa(lp659
I10
aI3
ag200
ag4
aa(lp660
I10
aI3
ag200
ag200
aa(lp661
I10
aI3
ag200
ag200
aa(lp662
I10
aI3
ag200
ag57
aa(lp663
I10
aI3
ag200
ag4
aa(lp664
I10
aI3
ag200
ag4
aa(lp665
I10
aI3
ag200
ag4
aa(lp666
I10
aI3
ag200
ag200
aa(lp667
I10
aI3
ag200
ag200
aa(lp668
I10
aI3
ag200
ag57
aa(lp669
I10
aI3
ag200
ag57
aa(lp670
I10
aI3
ag200
ag57
aa(lp671
I10
aI3
ag200
ag200
aa(lp672
I10
aI3
ag200
ag200
aa(lp673
I10
aI3
ag200
ag200
aa(lp674
I10
aI3
ag200
ag200
aa(lp675
I10
aI3
ag200
ag200
aa(lp676
I10
aI3
ag200
ag200
aa(lp677
I10
aI3
ag200
ag200
aa(lp678
I10
aI3
ag200
ag200
aa(lp679
I10
aI3
ag200
ag200
aa(lp680
I10
aI3
ag200
ag200
aa(lp681
I10
aI3
ag200
ag200
aa(lp682
I10
aI3
ag200
ag200
aa(lp683
I10
aI3
ag200
ag200
aa(lp684
I10
aI3
ag200
ag200
aa(lp685
I10
aI3
ag200
ag200
aa(lp686
I10
aI3
ag200
ag200
aa(lp687
I10
aI3
ag200
ag200
aa(lp688
I10
aI3
ag200
ag200
aa(lp689
I10
aI3
ag200
ag200
aa(lp690
I10
aI3
ag200
ag200
aa(lp691
I10
aI3
ag200
ag200
aa(lp692
I10
aI3
ag200
ag200
aa(lp693
I10
aI3
ag200
ag200
aa(lp694
I10
aI3
ag200
ag200
aa(lp695
I10
aI3
ag200
ag200
aa(lp696
I10
aI3
ag200
ag200
aa(lp697
I10
aI3
ag200
ag200
aa(lp698
I10
aI3
ag200
ag200
aa(lp699
I10
aI3
ag200
ag200
aa(lp700
I11
aI5
ag200
ag57
aa(lp701
I11
aI5
ag200
ag57
aa(lp702
I11
aI5
ag200
ag57
aa(lp703
I11
aI5
ag200
ag57
aa(lp704
I11
aI5
ag200
ag57
aa(lp705
I11
aI5
ag200
ag200
aa(lp706
I11
aI5
ag200
ag200
aa(lp707
I11
aI5
ag200
ag200
aa(lp708
I11
aI5
ag200
ag200
aa(lp709
I11
aI5
ag200
ag200
aa(lp710
I11
aI5
ag200
ag200
aa(lp711
I11
aI5
ag200
ag200
aa(lp712
I11
aI5
ag200
ag200
aa(lp713
I11
aI5
ag200
ag200
aa(lp714
I11
aI5
ag200
ag200
aa(lp715
I11
aI5
ag200
ag200
aa(lp716
I11
aI5
ag200
ag200
aa(lp717
I11
aI5
ag200
ag200
aa(lp718
I11
aI5
ag200
ag200
aa(lp719
I11
aI5
ag200
ag200
aa(lp720
I11
aI5
ag200
ag200
aa(lp721
I11
aI5
ag200
ag200
aa(lp722
I11
aI5
ag200
ag200
aa(lp723
I11
aI5
ag200
ag200
aa(lp724
I11
aI5
ag200
ag200
aa(lp725
I11
aI5
ag200
ag200
aa(lp726
I11
aI5
ag200
ag200
aa(lp727
I11
aI5
ag200
ag200
aa(lp728
I11
aI5
ag200
ag200
aa(lp729
I11
aI5
ag200
ag200
aa(lp730
I11
aI5
ag200
ag200
aa(lp731
I11
aI5
ag200
ag200
aa(lp732
I11
aI5
ag200
ag200
aa(lp733
I11
aI5
ag200
ag200
aa(lp734
I11
aI5
ag200
ag200
aa(lp735
I11
aI5
ag200
ag200
aa(lp736
I11
aI5
ag200
ag200
aa(lp737
I11
aI5
ag200
ag200
aa(lp738
I11
aI5
ag200
ag200
aa(lp739
I11
aI5
ag200
ag200
aa(lp740
I11
aI5
ag200
ag200
aa(lp741
I12
aI2
ag200
ag57
aa(lp742
I12
aI2
ag200
ag57
aa(lp743
I12
aI2
ag200
ag57
aa(lp744
I12
aI2
ag200
ag57
aa(lp745
I12
aI2
ag200
ag57
aa(lp746
I12
aI2
ag200
ag57
aa(lp747
I12
aI2
ag200
ag57
aa(lp748
I12
aI2
ag200
ag57
aa(lp749
I12
aI2
ag200
ag57
aa(lp750
I12
aI2
ag200
ag200
aa(lp751
I12
aI2
ag200
ag200
aa(lp752
I12
aI2
ag200
ag4
aa(lp753
I12
aI2
ag200
ag200
aa(lp754
I12
aI2
ag200
ag200
aa(lp755
I12
aI2
ag200
ag200
aa(lp756
I12
aI2
ag200
ag200
aa(lp757
I12
aI2
ag200
ag200
aa(lp758
I12
aI2
ag200
ag200
aa(lp759
I12
aI2
ag200
ag200
aa(lp760
I12
aI2
ag200
ag200
aa(lp761
I12
aI2
ag200
ag200
aa(lp762
I12
aI2
ag200
ag200
aa(lp763
I12
aI2
ag200
ag200
aa(lp764
I12
aI2
ag200
ag200
aa(lp765
I12
aI2
ag200
ag200
aa(lp766
I12
aI2
ag200
ag200
aa(lp767
I12
aI2
ag200
ag200
aa(lp768
I12
aI2
ag200
ag200
aa(lp769
I12
aI2
ag200
ag200
aa(lp770
I12
aI2
ag200
ag200
aa(lp771
I12
aI2
ag200
ag200
aa(lp772
I12
aI2
ag200
ag200
aa(lp773
I12
aI2
ag200
ag200
aa(lp774
I12
aI2
ag200
ag200
aa(lp775
I12
aI2
ag200
ag200
aa(lp776
I12
aI2
ag200
ag200
aa(lp777
I12
aI2
ag200
ag200
aa(lp778
I12
aI2
ag200
ag200
aa(lp779
I12
aI2
ag200
ag200
aa(lp780
I12
aI2
ag200
ag200
aa(lp781
I12
aI2
ag200
ag200
aa(lp782
I12
aI2
ag200
ag200
aa(lp783
I12
aI2
ag200
ag200
aa(lp784
I12
aI2
ag200
ag200
aa(lp785
I12
aI2
ag200
ag200
aa(lp786
I12
aI2
ag200
ag200
aa(lp787
I13
aI0
ag4
ag4
aa(lp788
I13
aI0
ag4
ag4
aa(lp789
I13
aI0
ag4
ag4
aa(lp790
I13
aI0
ag4
ag4
aa(lp791
I13
aI0
ag4
ag4
aa(lp792
I13
aI0
ag4
ag4
aa(lp793
I13
aI0
ag4
ag4
aa(lp794
I13
aI0
ag4
ag4
aa(lp795
I13
aI0
ag4
ag4
aa(lp796
I13
aI0
ag4
ag4
aa(lp797
I13
aI0
ag4
ag4
aa(lp798
I13
aI0
ag4
ag4
aa(lp799
I13
aI0
ag4
ag4
aa(lp800
I13
aI0
ag4
ag4
aa(lp801
I13
aI0
ag4
ag4
aa(lp802
I13
aI0
ag4
ag4
aa(lp803
I13
aI0
ag4
ag4
aa(lp804
I13
aI0
ag4
ag4
aa(lp805
I13
aI0
ag4
ag4
aa(lp806
I13
aI0
ag4
ag4
aa(lp807
I13
aI0
ag4
ag4
aa(lp808
I13
aI0
ag4
ag4
aa(lp809
I13
aI0
ag4
ag4
aa(lp810
I13
aI0
ag4
ag4
aa(lp811
I13
aI0
ag4
ag4
aa(lp812
I13
aI0
ag4
ag4
aa(lp813
I13
aI0
ag4
ag4
aa(lp814
I13
aI0
ag4
ag4
aa(lp815
I13
aI0
ag4
ag4
aa(lp816
I13
aI0
ag4
ag4
aa(lp817
I13
aI0
ag4
ag4
aa(lp818
I13
aI0
ag4
ag4
aa(lp819
I13
aI0
ag4
ag4
aa(lp820
I13
aI0
ag4
ag4
aa(lp821
I13
aI0
ag4
ag4
aa(lp822
I13
aI0
ag4
ag4
aa(lp823
I13
aI0
ag4
ag4
aa(lp824
I13
aI0
ag4
ag4
aa(lp825
I13
aI0
ag4
ag4
aa(lp826
I13
aI0
ag4
ag4
aa(lp827
I13
aI0
ag4
ag4
aa(lp828
I13
aI0
ag4
ag4
aa(lp829
I13
aI0
ag4
ag4
aa(lp830
I13
aI0
ag4
ag4
aa(lp831
I13
aI0
ag4
ag4
aa(lp832
I13
aI0
ag4
ag4
aa(lp833
I13
aI0
ag4
ag4
aa(lp834
I13
aI0
ag4
ag4
aa(lp835
I13
aI0
ag4
ag4
aa(lp836
I14
aI1
ag57
ag57
aa(lp837
I14
aI1
ag57
ag57
aa(lp838
I14
aI1
ag57
ag57
aa(lp839
I14
aI1
ag57
ag57
aa(lp840
I14
aI1
ag57
ag57
aa(lp841
I14
aI1
ag57
ag57
aa(lp842
I14
aI1
ag57
ag57
aa(lp843
I14
aI1
ag57
ag57
aa(lp844
I14
aI1
ag57
ag57
aa(lp845
I14
aI1
ag57
ag57
aa(lp846
I14
aI1
ag57
ag4
aa(lp847
I14
aI1
ag57
ag57
aa(lp848
I14
aI1
ag57
ag57
aa(lp849
I14
aI1
ag57
ag57
aa(lp850
I14
aI1
ag57
ag57
aa(lp851
I14
aI1
ag57
ag57
aa(lp852
I14
aI1
ag57
ag57
aa(lp853
I14
aI1
ag57
ag57
aa(lp854
I14
aI1
ag57
ag57
aa(lp855
I14
aI1
ag57
ag57
aa(lp856
I14
aI1
ag57
ag57
aa(lp857
I14
aI1
ag57
ag4
aa(lp858
I14
aI1
ag57
ag4
aa(lp859
I14
aI1
ag57
ag4
aa(lp860
I14
aI1
ag57
ag4
aa(lp861
I14
aI1
ag57
ag4
aa(lp862
I14
aI1
ag57
ag57
aa(lp863
I14
aI1
ag57
ag4
aa(lp864
I14
aI1
ag57
ag57
aa(lp865
I14
aI1
ag57
ag57
aa(lp866
I14
aI1
ag57
ag57
aa(lp867
I14
aI1
ag57
ag57
aa(lp868
I14
aI1
ag57
ag57
aa(lp869
I14
aI1
ag57
ag57
aa(lp870
I14
aI1
ag57
ag57
aa(lp871
I14
aI1
ag57
ag57
aa(lp872
I14
aI1
ag57
ag57
aa(lp873
I14
aI1
ag57
ag57
aa(lp874
I14
aI1
ag57
ag57
aa(lp875
I14
aI1
ag57
ag57
aa(lp876
I14
aI1
ag57
ag4
aa(lp877
I14
aI1
ag57
ag4
aa(lp878
I14
aI1
ag57
ag4
aa(lp879
I14
aI1
ag57
ag4
aa(lp880
I14
aI1
ag57
ag4
aa(lp881
I14
aI1
ag57
ag57
aa(lp882
I14
aI1
ag57
ag57
aa(lp883
I14
aI1
ag57
ag4
aa(lp884
I14
aI1
ag57
ag4
aa(lp885
I14
aI1
ag57
ag4
aa(lp886
I14
aI1
ag57
ag57
aa(lp887
I14
aI1
ag57
ag57
aa(lp888
I14
aI1
ag57
ag57
aa(lp889
I14
aI1
ag57
ag57
aa(lp890
I14
aI1
ag57
ag57
aa(lp891
I14
aI1
ag57
ag57
aa(lp892
I14
aI1
ag57
ag57
aa(lp893
I14
aI1
ag57
ag57
aa(lp894
I14
aI1
ag57
ag4
aa(lp895
I14
aI1
ag57
ag4
aa(lp896
I14
aI1
ag57
ag57
aa(lp897
I14
aI1
ag57
ag57
aa(lp898
I14
aI1
ag57
ag57
aa(lp899
I14
aI1
ag57
ag57
aa(lp900
I14
aI1
ag57
ag57
aa(lp901
I14
aI1
ag57
ag57
aa(lp902
I14
aI1
ag57
ag57
aa(lp903
I14
aI1
ag57
ag57
aa(lp904
I14
aI1
ag57
ag57
aa(lp905
I14
aI1
ag57
ag57
aa(lp906
I15
aI5
ag200
ag4
aa(lp907
I15
aI5
ag200
ag57
aa(lp908
I15
aI5
ag200
ag57
aa(lp909
I15
aI5
ag200
ag57
aa(lp910
I15
aI5
ag200
ag57
aa(lp911
I15
aI5
ag200
ag57
aa(lp912
I15
aI5
ag200
ag57
aa(lp913
I15
aI5
ag200
ag57
aa(lp914
I15
aI5
ag200
ag200
aa(lp915
I15
aI5
ag200
ag200
aa(lp916
I15
aI5
ag200
ag200
aa(lp917
I15
aI5
ag200
ag200
aa(lp918
I15
aI5
ag200
ag200
aa(lp919
I15
aI5
ag200
ag200
aa(lp920
I15
aI5
ag200
ag200
aa(lp921
I15
aI5
ag200
ag200
aa(lp922
I15
aI5
ag200
ag200
aa(lp923
I15
aI5
ag200
ag200
aa(lp924
I15
aI5
ag200
ag200
aa(lp925
I15
aI5
ag200
ag200
aa(lp926
I15
aI5
ag200
ag200
aa(lp927
I15
aI5
ag200
ag200
aa(lp928
I15
aI5
ag200
ag200
aa(lp929
I15
aI5
ag200
ag200
aa(lp930
I15
aI5
ag200
ag200
aa(lp931
I15
aI5
ag200
ag200
aa(lp932
I15
aI5
ag200
ag200
aa(lp933
I15
aI5
ag200
ag200
aa(lp934
I15
aI5
ag200
ag200
aa(lp935
I15
aI5
ag200
ag200
aa(lp936
I16
aI7
ag4
ag4
aa(lp937
I16
aI7
ag4
ag4
aa(lp938
I16
aI7
ag4
ag4
aa(lp939
I16
aI7
ag4
ag4
aa(lp940
I16
aI7
ag4
ag4
aa(lp941
I16
aI7
ag4
ag4
aa(lp942
I16
aI7
ag4
ag4
aa(lp943
I16
aI7
ag4
ag4
aa(lp944
I16
aI7
ag4
ag4
aa(lp945
I16
aI7
ag4
ag4
aa(lp946
I16
aI7
ag4
ag4
aa(lp947
I16
aI7
ag4
ag4
aa(lp948
I16
aI7
ag4
ag4
aa(lp949
I16
aI7
ag4
ag4
aa(lp950
I16
aI7
ag4
ag4
aa(lp951
I16
aI7
ag4
ag4
aa(lp952
I16
aI7
ag4
ag4
aa(lp953
I16
aI7
ag4
ag4
aa(lp954
I16
aI7
ag4
ag4
aa(lp955
I16
aI7
ag4
ag4
aa(lp956
I16
aI7
ag4
ag4
aa(lp957
I16
aI7
ag4
ag4
aa(lp958
I16
aI7
ag4
ag4
aa(lp959
I16
aI7
ag4
ag4
aa(lp960
I16
aI7
ag4
ag4
aa(lp961
I16
aI7
ag4
ag4
aa(lp962
I16
aI7
ag4
ag4
aa(lp963
I16
aI7
ag4
ag4
aa(lp964
I16
aI7
ag4
ag4
aa(lp965
I16
aI7
ag4
ag4
aa(lp966
I16
aI7
ag4
ag4
aa(lp967
I16
aI7
ag4
ag4
aa(lp968
I16
aI7
ag4
ag4
aa(lp969
I16
aI7
ag4
ag4
aa(lp970
I16
aI7
ag4
ag4
aa(lp971
I16
aI7
ag4
ag4
aa(lp972
I16
aI7
ag4
ag4
aa(lp973
I16
aI7
ag4
ag57
aa(lp974
I16
aI7
ag4
ag4
aa(lp975
I16
aI7
ag4
ag4
aa(lp976
I16
aI7
ag4
ag4
aa(lp977
I16
aI7
ag4
ag4
aa(lp978
I16
aI7
ag4
ag4
aa(lp979
I16
aI7
ag4
ag4
aa(lp980
I16
aI7
ag4
ag4
aa(lp981
I16
aI7
ag4
ag57
aa(lp982
I16
aI7
ag4
ag4
aa(lp983
I16
aI7
ag4
ag4
aa(lp984
I17
aI3
ag200
ag4
aa(lp985
I17
aI3
ag200
ag4
aa(lp986
I17
aI3
ag200
ag4
aa(lp987
I17
aI3
ag200
ag4
aa(lp988
I17
aI3
ag200
ag200
aa(lp989
I17
aI3
ag200
ag200
aa(lp990
I17
aI3
ag200
ag200
aa(lp991
I17
aI3
ag200
ag200
aa(lp992
I17
aI3
ag200
ag200
aa(lp993
I17
aI3
ag200
ag200
aa(lp994
I17
aI3
ag200
ag200
aa(lp995
I17
aI3
ag200
ag200
aa(lp996
I17
aI3
ag200
ag200
aa(lp997
I17
aI3
ag200
ag200
aa(lp998
I17
aI3
ag200
ag200
aa(lp999
I17
aI3
ag200
ag200
aa(lp1000
I17
aI3
ag200
ag200
aa(lp1001
I17
aI3
ag200
ag200
aa(lp1002
I17
aI3
ag200
ag200
aa(lp1003
I17
aI3
ag200
ag200
aa(lp1004
I17
aI3
ag200
ag200
aa(lp1005
I17
aI3
ag200
ag200
aa(lp1006
I17
aI3
ag200
ag200
aa(lp1007
I17
aI3
ag200
ag200
aa(lp1008
I17
aI3
ag200
ag200
aa(lp1009
I17
aI3
ag200
ag200
aa(lp1010
I17
aI3
ag200
ag200
aa(lp1011
I17
aI3
ag200
ag200
aa(lp1012
I17
aI3
ag200
ag200
aa(lp1013
I17
aI3
ag200
ag200
aa(lp1014
I17
aI3
ag200
ag200
aa(lp1015
I17
aI3
ag200
ag200
aa(lp1016
I17
aI3
ag200
ag200
aa(lp1017
I17
aI3
ag200
ag200
aa(lp1018
I17
aI3
ag200
ag200
aa(lp1019
I17
aI3
ag200
ag200
aa(lp1020
I17
aI3
ag200
ag200
aasS'results'
p1021
(lp1022
S'correct'
p1023
ag1023
ag1023
ag1023
aS'unfinished'
p1024
ag1023
ag1023
ag1024
ag1023
ag1023
ag1023
ag1023
ag1023
ag1023
ag1023
ag1023
ag1023
ag1023
asS'times'
p1025
(lp1026
F97.00100000000384
aF140.00099999999657
aF140.0
aF140.0
aF139.9979999999996
aF140.00100000000384
aF140.00099999999657
aF140.00100000000384
aF129.99899999999616
aF85.99799999999959
aF82.0
aF79.99899999999616
aF90.0
aF95.99899999999616
aF140.0
aF57.999000000003434
aF93.99900000000343
aF71.99799999999959
as.