(dp0
S'history'
p1
(lp2
(lp3
I0
aI0
aS'B1'
p4
ag4
aa(lp5
I0
aI0
ag4
ag4
aa(lp6
I0
aI0
ag4
aS'B3'
p7
aa(lp8
I0
aI0
ag4
ag7
aa(lp9
I0
aI0
ag4
ag4
aa(lp10
I0
aI0
ag4
ag4
aa(lp11
I0
aI0
ag4
ag4
aa(lp12
I0
aI0
ag4
ag4
aa(lp13
I0
aI0
ag4
ag4
aa(lp14
I0
aI0
ag4
ag4
aa(lp15
I0
aI0
ag4
ag4
aa(lp16
I0
aI0
ag4
ag4
aa(lp17
I0
aI0
ag4
ag7
aa(lp18
I0
aI0
ag4
ag4
aa(lp19
I0
aI0
ag4
ag4
aa(lp20
I0
aI0
ag4
ag4
aa(lp21
I0
aI0
ag4
ag4
aa(lp22
I0
aI0
ag4
ag4
aa(lp23
I0
aI0
ag4
ag4
aa(lp24
I0
aI0
ag4
ag4
aa(lp25
I0
aI0
ag4
ag4
aa(lp26
I0
aI0
ag4
ag4
aa(lp27
I0
aI0
ag4
ag4
aa(lp28
I0
aI0
ag4
ag4
aa(lp29
I0
aI0
ag4
ag4
aa(lp30
I0
aI0
ag4
ag4
aa(lp31
I0
aI0
ag4
ag4
aa(lp32
I0
aI0
ag4
ag4
aa(lp33
I0
aI0
ag4
ag7
aa(lp34
I0
aI0
ag4
ag7
aa(lp35
I0
aI0
ag4
ag7
aa(lp36
I0
aI0
ag4
ag7
aa(lp37
I0
aI0
ag4
ag7
aa(lp38
I0
aI0
ag4
ag4
aa(lp39
I0
aI0
ag4
ag4
aa(lp40
I0
aI0
ag4
ag4
aa(lp41
I0
aI0
ag4
ag4
aa(lp42
I0
aI0
ag4
ag4
aa(lp43
I0
aI0
ag4
ag4
aa(lp44
I0
aI0
ag4
ag4
aa(lp45
I0
aI0
ag4
ag4
aa(lp46
I0
aI0
ag4
ag4
aa(lp47
I0
aI0
ag4
ag4
aa(lp48
I0
aI0
ag4
ag4
aa(lp49
I0
aI0
ag4
ag4
aa(lp50
I0
aI0
ag4
ag4
aa(lp51
I0
aI0
ag4
ag4
aa(lp52
I0
aI0
ag4
ag4
aa(lp53
I0
aI0
ag4
ag4
aa(lp54
I0
aI0
ag4
ag4
aa(lp55
I1
aI3
aS'B2'
p56
ag56
aa(lp57
I1
aI3
ag56
ag56
aa(lp58
I1
aI3
ag56
ag56
aa(lp59
I1
aI3
ag56
ag56
aa(lp60
I1
aI3
ag56
ag7
aa(lp61
I1
aI3
ag56
ag7
aa(lp62
I1
aI3
ag56
ag7
aa(lp63
I1
aI3
ag56
ag56
aa(lp64
I1
aI3
ag56
ag56
aa(lp65
I1
aI3
ag56
ag56
aa(lp66
I1
aI3
ag56
ag56
aa(lp67
I1
aI3
ag56
ag56
aa(lp68
I1
aI3
ag56
ag56
aa(lp69
I1
aI3
ag56
ag56
aa(lp70
I1
aI3
ag56
ag56
aa(lp71
I1
aI3
ag56
ag56
aa(lp72
I1
aI3
ag56
ag56
aa(lp73
I1
aI3
ag56
ag56
aa(lp74
I1
aI3
ag56
ag56
aa(lp75
I1
aI3
ag56
ag56
aa(lp76
I1
aI3
ag56
ag56
aa(lp77
I1
aI3
ag56
ag56
aa(lp78
I1
aI3
ag56
ag56
aa(lp79
I1
aI3
ag56
ag56
aa(lp80
I1
aI3
ag56
ag56
aa(lp81
I1
aI3
ag56
ag56
aa(lp82
I1
aI3
ag56
ag56
aa(lp83
I1
aI3
ag56
ag56
aa(lp84
I1
aI3
ag56
ag56
aa(lp85
I1
aI3
ag56
ag56
aa(lp86
I1
aI3
ag56
ag56
aa(lp87
I1
aI3
ag56
ag56
aa(lp88
I1
aI3
ag56
ag56
aa(lp89
I1
aI3
ag56
ag56
aa(lp90
I1
aI3
ag56
ag56
aa(lp91
I1
aI3
ag56
ag56
aa(lp92
I1
aI3
ag56
ag56
aa(lp93
I1
aI3
ag56
ag56
aa(lp94
I1
aI3
ag56
ag56
aa(lp95
I1
aI3
ag56
ag56
aa(lp96
I1
aI3
ag56
ag56
aa(lp97
I2
aI6
ag7
ag56
aa(lp98
I2
aI6
ag7
ag56
aa(lp99
I2
aI6
ag7
ag56
aa(lp100
I2
aI6
ag7
ag4
aa(lp101
I2
aI6
ag7
ag4
aa(lp102
I2
aI6
ag7
ag4
aa(lp103
I2
aI6
ag7
ag4
aa(lp104
I2
aI6
ag7
ag7
aa(lp105
I2
aI6
ag7
ag7
aa(lp106
I2
aI6
ag7
ag7
aa(lp107
I2
aI6
ag7
ag7
aa(lp108
I2
aI6
ag7
ag7
aa(lp109
I2
aI6
ag7
ag7
aa(lp110
I2
aI6
ag7
ag7
aa(lp111
I2
aI6
ag7
ag7
aa(lp112
I2
aI6
ag7
ag7
aa(lp113
I2
aI6
ag7
ag7
aa(lp114
I2
aI6
ag7
ag7
aa(lp115
I2
aI6
ag7
ag7
aa(lp116
I2
aI6
ag7
ag7
aa(lp117
I2
aI6
ag7
ag7
aa(lp118
I2
aI6
ag7
ag7
aa(lp119
I2
aI6
ag7
ag7
aa(lp120
I2
aI6
ag7
ag7
aa(lp121
I2
aI6
ag7
ag7
aa(lp122
I2
aI6
ag7
ag7
aa(lp123
I2
aI6
ag7
ag7
aa(lp124
I2
aI6
ag7
ag7
aa(lp125
I2
aI6
ag7
ag7
aa(lp126
I2
aI6
ag7
ag7
aa(lp127
I2
aI6
ag7
ag7
aa(lp128
I2
aI6
ag7
ag7
aa(lp129
I2
aI6
ag7
ag7
aa(lp130
I2
aI6
ag7
ag7
aa(lp131
I2
aI6
ag7
ag7
aa(lp132
I2
aI6
ag7
ag7
aa(lp133
I2
aI6
ag7
ag7
aa(lp134
I2
aI6
ag7
ag7
aa(lp135
I2
aI6
ag7
ag7
aa(lp136
I2
aI6
ag7
ag7
aa(lp137
I2
aI6
ag7
ag7
aa(lp138
I2
aI6
ag7
ag7
aa(lp139
I2
aI6
ag7
ag7
aa(lp140
I2
aI6
ag7
ag7
aa(lp141
I2
aI6
ag7
ag7
aa(lp142
I2
aI6
ag7
ag7
aa(lp143
I2
aI6
ag7
ag7
aa(lp144
I2
aI6
ag7
ag7
aa(lp145
I2
aI6
ag7
ag7
aa(lp146
I2
aI6
ag7
ag7
aa(lp147
I2
aI6
ag7
ag7
aa(lp148
I2
aI6
ag7
ag7
aa(lp149
I2
aI6
ag7
ag7
aa(lp150
I2
aI6
ag7
ag7
aa(lp151
I2
aI6
ag7
ag7
aa(lp152
I2
aI6
ag7
ag7
aa(lp153
I2
aI6
ag7
ag7
aa(lp154
I2
aI6
ag7
ag7
aa(lp155
I2
aI6
ag7
ag7
aa(lp156
I2
aI6
ag7
ag7
aa(lp157
I2
aI6
ag7
ag7
aa(lp158
I2
aI6
ag7
ag7
aa(lp159
I2
aI6
ag7
ag7
aa(lp160
I2
aI6
ag7
ag7
aa(lp161
I2
aI6
ag7
ag7
aa(lp162
I2
aI6
ag7
ag7
aa(lp163
I2
aI6
ag7
ag7
aa(lp164
I2
aI6
ag7
ag7
aa(lp165
I2
aI6
ag7
ag7
aa(lp166
I2
aI6
ag7
ag7
aa(lp167
I3
aI4
ag4
ag7
aa(lp168
I3
aI4
ag4
ag7
aa(lp169
I3
aI4
ag4
ag7
aa(lp170
I3
aI4
ag4
ag7
aa(lp171
I3
aI4
ag4
ag4
aa(lp172
I3
aI4
ag4
ag4
aa(lp173
I3
aI4
ag4
ag4
aa(lp174
I3
aI4
ag4
ag4
aa(lp175
I3
aI4
ag4
ag4
aa(lp176
I3
aI4
ag4
ag4
aa(lp177
I3
aI4
ag4
ag4
aa(lp178
I3
aI4
ag4
ag4
aa(lp179
I3
aI4
ag4
ag4
aa(lp180
I3
aI4
ag4
ag4
aa(lp181
I3
aI4
ag4
ag4
aa(lp182
I3
aI4
ag4
ag4
aa(lp183
I3
aI4
ag4
ag4
aa(lp184
I3
aI4
ag4
ag4
aa(lp185
I3
aI4
ag4
ag4
aa(lp186
I3
aI4
ag4
ag4
aa(lp187
I3
aI4
ag4
ag4
aa(lp188
I3
aI4
ag4
ag4
aa(lp189
I3
aI4
ag4
ag4
aa(lp190
I3
aI4
ag4
ag4
aa(lp191
I3
aI4
ag4
ag4
aa(lp192
I3
aI4
ag4
ag4
aa(lp193
I3
aI4
ag4
ag4
aa(lp194
I3
aI4
ag4
ag4
aa(lp195
I3
aI4
ag4
ag4
aa(lp196
I3
aI4
ag4
ag4
aa(lp197
I3
aI4
ag4
ag4
aa(lp198
I3
aI4
ag4
ag4
aa(lp199
I3
aI4
ag4
ag7
aa(lp200
I3
aI4
ag4
ag7
aa(lp201
I3
aI4
ag4
ag7
aa(lp202
I3
aI4
ag4
ag7
aa(lp203
I3
aI4
ag4
ag4
aa(lp204
I3
aI4
ag4
ag4
aa(lp205
I3
aI4
ag4
ag4
aa(lp206
I3
aI4
ag4
ag4
aa(lp207
I3
aI4
ag4
ag4
aa(lp208
I3
aI4
ag4
ag4
aa(lp209
I3
aI4
ag4
ag4
aa(lp210
I3
aI4
ag4
ag4
aa(lp211
I3
aI4
ag4
ag4
aa(lp212
I3
aI4
ag4
ag4
aa(lp213
I3
aI4
ag4
ag4
aa(lp214
I3
aI4
ag4
ag4
aa(lp215
I3
aI4
ag4
ag4
aa(lp216
I3
aI4
ag4
ag4
aa(lp217
I3
aI4
ag4
ag4
aa(lp218
I3
aI4
ag4
ag4
aa(lp219
I3
aI4
ag4
ag4
aa(lp220
I3
aI4
ag4
ag4
aa(lp221
I3
aI4
ag4
ag4
aa(lp222
I3
aI4
ag4
ag4
aa(lp223
I3
aI4
ag4
ag4
aa(lp224
I3
aI4
ag4
ag4
aa(lp225
I3
aI4
ag4
ag4
aa(lp226
I3
aI4
ag4
ag4
aa(lp227
I3
aI4
ag4
ag4
aa(lp228
I3
aI4
ag4
ag4
aa(lp229
I4
aI7
ag4
ag56
aa(lp230
I4
aI7
ag4
ag4
aa(lp231
I4
aI7
ag4
ag4
aa(lp232
I4
aI7
ag4
ag4
aa(lp233
I4
aI7
ag4
ag4
aa(lp234
I4
aI7
ag4
ag4
aa(lp235
I4
aI7
ag4
ag4
aa(lp236
I4
aI7
ag4
ag4
aa(lp237
I4
aI7
ag4
ag4
aa(lp238
I4
aI7
ag4
ag7
aa(lp239
I4
aI7
ag4
ag7
aa(lp240
I4
aI7
ag4
ag7
aa(lp241
I4
aI7
ag4
ag7
aa(lp242
I4
aI7
ag4
ag7
aa(lp243
I4
aI7
ag4
ag7
aa(lp244
I4
aI7
ag4
ag7
aa(lp245
I4
aI7
ag4
ag7
aa(lp246
I4
aI7
ag4
ag7
aa(lp247
I4
aI7
ag4
ag7
aa(lp248
I4
aI7
ag4
ag7
aa(lp249
I4
aI7
ag4
ag7
aa(lp250
I4
aI7
ag4
ag7
aa(lp251
I4
aI7
ag4
ag7
aa(lp252
I4
aI7
ag4
ag7
aa(lp253
I4
aI7
ag4
ag4
aa(lp254
I4
aI7
ag4
ag4
aa(lp255
I4
aI7
ag4
ag4
aa(lp256
I4
aI7
ag4
ag4
aa(lp257
I4
aI7
ag4
ag4
aa(lp258
I4
aI7
ag4
ag4
aa(lp259
I4
aI7
ag4
ag4
aa(lp260
I4
aI7
ag4
ag4
aa(lp261
I4
aI7
ag4
ag4
aa(lp262
I4
aI7
ag4
ag4
aa(lp263
I4
aI7
ag4
ag4
aa(lp264
I4
aI7
ag4
ag4
aa(lp265
I4
aI7
ag4
ag4
aa(lp266
I4
aI7
ag4
ag4
aa(lp267
I4
aI7
ag4
ag4
aa(lp268
I4
aI7
ag4
ag4
aa(lp269
I4
aI7
ag4
ag4
aa(lp270
I4
aI7
ag4
ag4
aa(lp271
I4
aI7
ag4
ag4
aa(lp272
I4
aI7
ag4
ag7
aa(lp273
I4
aI7
ag4
ag7
aa(lp274
I4
aI7
ag4
ag7
aa(lp275
I4
aI7
ag4
ag7
aa(lp276
I4
aI7
ag4
ag7
aa(lp277
I4
aI7
ag4
ag4
aa(lp278
I4
aI7
ag4
ag4
aa(lp279
I4
aI7
ag4
ag4
aa(lp280
I4
aI7
ag4
ag4
aa(lp281
I4
aI7
ag4
ag4
aa(lp282
I4
aI7
ag4
ag4
aa(lp283
I4
aI7
ag4
ag4
aa(lp284
I4
aI7
ag4
ag4
aa(lp285
I4
aI7
ag4
ag4
aa(lp286
I4
aI7
ag4
ag4
aa(lp287
I4
aI7
ag4
ag4
aa(lp288
I4
aI7
ag4
ag4
aa(lp289
I4
aI7
ag4
ag4
aa(lp290
I4
aI7
ag4
ag4
aa(lp291
I4
aI7
ag4
ag4
aa(lp292
I4
aI7
ag4
ag4
aa(lp293
I4
aI7
ag4
ag4
aa(lp294
I4
aI7
ag4
ag4
aa(lp295
I4
aI7
ag4
ag4
aa(lp296
I4
aI7
ag4
ag4
aa(lp297
I4
aI7
ag4
ag4
aa(lp298
I4
aI7
ag4
ag4
aa(lp299
I5
aI1
ag7
ag7
aa(lp300
I5
aI1
ag7
ag7
aa(lp301
I5
aI1
ag7
ag4
aa(lp302
I5
aI1
ag7
ag4
aa(lp303
I5
aI1
ag7
ag4
aa(lp304
I5
aI1
ag7
ag4
aa(lp305
I5
aI1
ag7
ag4
aa(lp306
I5
aI1
ag7
ag4
aa(lp307
I5
aI1
ag7
ag4
aa(lp308
I5
aI1
ag7
ag4
aa(lp309
I5
aI1
ag7
ag4
aa(lp310
I5
aI1
ag7
ag7
aa(lp311
I5
aI1
ag7
ag7
aa(lp312
I5
aI1
ag7
ag7
aa(lp313
I5
aI1
ag7
ag7
aa(lp314
I5
aI1
ag7
ag7
aa(lp315
I5
aI1
ag7
ag7
aa(lp316
I5
aI1
ag7
ag4
aa(lp317
I5
aI1
ag7
ag4
aa(lp318
I5
aI1
ag7
ag4
aa(lp319
I5
aI1
ag7
ag4
aa(lp320
I5
aI1
ag7
ag4
aa(lp321
I5
aI1
ag7
ag4
aa(lp322
I5
aI1
ag7
ag4
aa(lp323
I5
aI1
ag7
ag4
aa(lp324
I5
aI1
ag7
ag4
aa(lp325
I5
aI1
ag7
ag4
aa(lp326
I5
aI1
ag7
ag4
aa(lp327
I5
aI1
ag7
ag4
aa(lp328
I5
aI1
ag7
ag4
aa(lp329
I5
aI1
ag7
ag4
aa(lp330
I5
aI1
ag7
ag4
aa(lp331
I5
aI1
ag7
ag4
aa(lp332
I5
aI1
ag7
ag4
aa(lp333
I5
aI1
ag7
ag4
aa(lp334
I5
aI1
ag7
ag7
aa(lp335
I5
aI1
ag7
ag7
aa(lp336
I5
aI1
ag7
ag7
aa(lp337
I5
aI1
ag7
ag7
aa(lp338
I5
aI1
ag7
ag7
aa(lp339
I5
aI1
ag7
ag7
aa(lp340
I5
aI1
ag7
ag7
aa(lp341
I5
aI1
ag7
ag7
aa(lp342
I5
aI1
ag7
ag7
aa(lp343
I5
aI1
ag7
ag7
aa(lp344
I5
aI1
ag7
ag7
aa(lp345
I5
aI1
ag7
ag7
aa(lp346
I5
aI1
ag7
ag7
aa(lp347
I5
aI1
ag7
ag7
aa(lp348
I5
aI1
ag7
ag7
aa(lp349
I5
aI1
ag7
ag7
aa(lp350
I5
aI1
ag7
ag7
aa(lp351
I5
aI1
ag7
ag7
aa(lp352
I5
aI1
ag7
ag7
aa(lp353
I5
aI1
ag7
ag7
aa(lp354
I5
aI1
ag7
ag7
aa(lp355
I5
aI1
ag7
ag7
aa(lp356
I5
aI1
ag7
ag7
aa(lp357
I5
aI1
ag7
ag7
aa(lp358
I5
aI1
ag7
ag7
aa(lp359
I5
aI1
ag7
ag4
aa(lp360
I5
aI1
ag7
ag4
aa(lp361
I5
aI1
ag7
ag4
aa(lp362
I5
aI1
ag7
ag7
aa(lp363
I5
aI1
ag7
ag7
aa(lp364
I5
aI1
ag7
ag7
aa(lp365
I5
aI1
ag7
ag7
aa(lp366
I5
aI1
ag7
ag4
aa(lp367
I5
aI1
ag7
ag4
aa(lp368
I5
aI1
ag7
ag4
aa(lp369
I6
aI2
ag56
ag7
aa(lp370
I6
aI2
ag56
ag7
aa(lp371
I6
aI2
ag56
ag56
aa(lp372
I6
aI2
ag56
ag56
aa(lp373
I6
aI2
ag56
ag56
aa(lp374
I6
aI2
ag56
ag56
aa(lp375
I6
aI2
ag56
ag56
aa(lp376
I6
aI2
ag56
ag56
aa(lp377
I6
aI2
ag56
ag56
aa(lp378
I6
aI2
ag56
ag56
aa(lp379
I6
aI2
ag56
ag56
aa(lp380
I6
aI2
ag56
ag56
aa(lp381
I6
aI2
ag56
ag56
aa(lp382
I6
aI2
ag56
ag56
aa(lp383
I6
aI2
ag56
ag56
aa(lp384
I6
aI2
ag56
ag56
aa(lp385
I6
aI2
ag56
ag56
aa(lp386
I6
aI2
ag56
ag56
aa(lp387
I6
aI2
ag56
ag56
aa(lp388
I6
aI2
ag56
ag56
aa(lp389
I6
aI2
ag56
ag56
aa(lp390
I6
aI2
ag56
ag56
aa(lp391
I6
aI2
ag56
ag56
aa(lp392
I6
aI2
ag56
ag56
aa(lp393
I6
aI2
ag56
ag56
aa(lp394
I6
aI2
ag56
ag56
aa(lp395
I6
aI2
ag56
ag56
aa(lp396
I6
aI2
ag56
ag56
aa(lp397
I6
aI2
ag56
ag56
aa(lp398
I6
aI2
ag56
ag56
aa(lp399
I7
aI3
ag56
ag7
aa(lp400
I7
aI3
ag56
ag7
aa(lp401
I7
aI3
ag56
ag4
aa(lp402
I7
aI3
ag56
ag56
aa(lp403
I7
aI3
ag56
ag56
aa(lp404
I7
aI3
ag56
ag56
aa(lp405
I7
aI3
ag56
ag56
aa(lp406
I7
aI3
ag56
ag56
aa(lp407
I7
aI3
ag56
ag56
aa(lp408
I7
aI3
ag56
ag56
aa(lp409
I7
aI3
ag56
ag56
aa(lp410
I7
aI3
ag56
ag56
aa(lp411
I7
aI3
ag56
ag56
aa(lp412
I7
aI3
ag56
ag56
aa(lp413
I7
aI3
ag56
ag56
aa(lp414
I7
aI3
ag56
ag56
aa(lp415
I7
aI3
ag56
ag56
aa(lp416
I7
aI3
ag56
ag56
aa(lp417
I7
aI3
ag56
ag56
aa(lp418
I7
aI3
ag56
ag56
aa(lp419
I7
aI3
ag56
ag56
aa(lp420
I7
aI3
ag56
ag56
aa(lp421
I7
aI3
ag56
ag56
aa(lp422
I7
aI3
ag56
ag56
aa(lp423
I7
aI3
ag56
ag56
aa(lp424
I7
aI3
ag56
ag56
aa(lp425
I7
aI3
ag56
ag56
aa(lp426
I7
aI3
ag56
ag56
aa(lp427
I7
aI3
ag56
ag56
aa(lp428
I7
aI3
ag56
ag56
aa(lp429
I7
aI3
ag56
ag56
aa(lp430
I7
aI3
ag56
ag56
aa(lp431
I7
aI3
ag56
ag56
aa(lp432
I7
aI3
ag56
ag56
aa(lp433
I7
aI3
ag56
ag56
aa(lp434
I7
aI3
ag56
ag56
aa(lp435
I7
aI3
ag56
ag56
aa(lp436
I7
aI3
ag56
ag56
aa(lp437
I7
aI3
ag56
ag56
aa(lp438
I8
aI8
ag7
ag7
aa(lp439
I8
aI8
ag7
ag7
aa(lp440
I8
aI8
ag7
ag7
aa(lp441
I8
aI8
ag7
ag7
aa(lp442
I8
aI8
ag7
ag7
aa(lp443
I8
aI8
ag7
ag7
aa(lp444
I8
aI8
ag7
ag7
aa(lp445
I8
aI8
ag7
ag7
aa(lp446
I8
aI8
ag7
ag7
aa(lp447
I8
aI8
ag7
ag7
aa(lp448
I8
aI8
ag7
ag7
aa(lp449
I8
aI8
ag7
ag7
aa(lp450
I8
aI8
ag7
ag7
aa(lp451
I8
aI8
ag7
ag7
aa(lp452
I8
aI8
ag7
ag7
aa(lp453
I8
aI8
ag7
ag7
aa(lp454
I8
aI8
ag7
ag7
aa(lp455
I8
aI8
ag7
ag7
aa(lp456
I8
aI8
ag7
ag7
aa(lp457
I8
aI8
ag7
ag7
aa(lp458
I8
aI8
ag7
ag7
aa(lp459
I8
aI8
ag7
ag7
aa(lp460
I8
aI8
ag7
ag7
aa(lp461
I8
aI8
ag7
ag7
aa(lp462
I8
aI8
ag7
ag7
aa(lp463
I8
aI8
ag7
ag7
aa(lp464
I8
aI8
ag7
ag7
aa(lp465
I8
aI8
ag7
ag7
aa(lp466
I8
aI8
ag7
ag7
aa(lp467
I8
aI8
ag7
ag7
aa(lp468
I8
aI8
ag7
ag7
aa(lp469
I8
aI8
ag7
ag7
aa(lp470
I8
aI8
ag7
ag7
aa(lp471
I8
aI8
ag7
ag7
aa(lp472
I8
aI8
ag7
ag7
aa(lp473
I8
aI8
ag7
ag7
aa(lp474
I8
aI8
ag7
ag7
aa(lp475
I8
aI8
ag7
ag7
aa(lp476
I8
aI8
ag7
ag7
aa(lp477
I8
aI8
ag7
ag7
aa(lp478
I8
aI8
ag7
ag7
aa(lp479
I8
aI8
ag7
ag7
aa(lp480
I8
aI8
ag7
ag7
aa(lp481
I8
aI8
ag7
ag7
aa(lp482
I8
aI8
ag7
ag7
aa(lp483
I8
aI8
ag7
ag7
aa(lp484
I8
aI8
ag7
ag7
aa(lp485
I8
aI8
ag7
ag7
aa(lp486
I8
aI8
ag7
ag7
aa(lp487
I8
aI8
ag7
ag7
aa(lp488
I8
aI8
ag7
ag7
aa(lp489
I8
aI8
ag7
ag7
aa(lp490
I8
aI8
ag7
ag7
aa(lp491
I8
aI8
ag7
ag7
aa(lp492
I8
aI8
ag7
ag7
aa(lp493
I8
aI8
ag7
ag7
aa(lp494
I8
aI8
ag7
ag7
aa(lp495
I8
aI8
ag7
ag7
aa(lp496
I8
aI8
ag7
ag7
aa(lp497
I8
aI8
ag7
ag7
aa(lp498
I8
aI8
ag7
ag7
aa(lp499
I8
aI8
ag7
ag7
aa(lp500
I8
aI8
ag7
ag7
aa(lp501
I8
aI8
ag7
ag7
aa(lp502
I8
aI8
ag7
ag7
aa(lp503
I8
aI8
ag7
ag7
aa(lp504
I8
aI8
ag7
ag7
aa(lp505
I8
aI8
ag7
ag7
aa(lp506
I8
aI8
ag7
ag7
aa(lp507
I8
aI8
ag7
ag7
aa(lp508
I9
aI2
ag56
ag56
aa(lp509
I9
aI2
ag56
ag56
aa(lp510
I9
aI2
ag56
ag56
aa(lp511
I9
aI2
ag56
ag56
aa(lp512
I9
aI2
ag56
ag4
aa(lp513
I9
aI2
ag56
ag4
aa(lp514
I9
aI2
ag56
ag56
aa(lp515
I9
aI2
ag56
ag56
aa(lp516
I9
aI2
ag56
ag56
aa(lp517
I9
aI2
ag56
ag56
aa(lp518
I9
aI2
ag56
ag56
aa(lp519
I9
aI2
ag56
ag56
aa(lp520
I9
aI2
ag56
ag56
aa(lp521
I9
aI2
ag56
ag56
aa(lp522
I9
aI2
ag56
ag56
aa(lp523
I9
aI2
ag56
ag56
aa(lp524
I9
aI2
ag56
ag56
aa(lp525
I9
aI2
ag56
ag56
aa(lp526
I9
aI2
ag56
ag56
aa(lp527
I9
aI2
ag56
ag56
aa(lp528
I9
aI2
ag56
ag56
aa(lp529
I9
aI2
ag56
ag56
aa(lp530
I9
aI2
ag56
ag56
aa(lp531
I9
aI2
ag56
ag56
aa(lp532
I9
aI2
ag56
ag56
aa(lp533
I9
aI2
ag56
ag56
aa(lp534
I9
aI2
ag56
ag56
aa(lp535
I9
aI2
ag56
ag56
aa(lp536
I9
aI2
ag56
ag56
aa(lp537
I9
aI2
ag56
ag56
aa(lp538
I9
aI2
ag56
ag56
aa(lp539
I9
aI2
ag56
ag56
aa(lp540
I9
aI2
ag56
ag56
aa(lp541
I9
aI2
ag56
ag56
aa(lp542
I9
aI2
ag56
ag56
aa(lp543
I9
aI2
ag56
ag56
aa(lp544
I9
aI2
ag56
ag56
aa(lp545
I9
aI2
ag56
ag56
aa(lp546
I9
aI2
ag56
ag56
aa(lp547
I9
aI2
ag56
ag56
aa(lp548
I9
aI2
ag56
ag56
aa(lp549
I9
aI2
ag56
ag56
aa(lp550
I10
aI5
ag56
ag56
aa(lp551
I10
aI5
ag56
ag56
aa(lp552
I10
aI5
ag56
ag7
aa(lp553
I10
aI5
ag56
ag7
aa(lp554
I10
aI5
ag56
ag4
aa(lp555
I10
aI5
ag56
ag4
aa(lp556
I10
aI5
ag56
ag56
aa(lp557
I10
aI5
ag56
ag7
aa(lp558
I10
aI5
ag56
ag56
aa(lp559
I10
aI5
ag56
ag56
aa(lp560
I10
aI5
ag56
ag56
aa(lp561
I10
aI5
ag56
ag56
aa(lp562
I10
aI5
ag56
ag56
aa(lp563
I10
aI5
ag56
ag56
aa(lp564
I10
aI5
ag56
ag56
aa(lp565
I10
aI5
ag56
ag56
aa(lp566
I10
aI5
ag56
ag56
aa(lp567
I10
aI5
ag56
ag56
aa(lp568
I10
aI5
ag56
ag56
aa(lp569
I10
aI5
ag56
ag56
aa(lp570
I10
aI5
ag56
ag56
aa(lp571
I10
aI5
ag56
ag56
aa(lp572
I10
aI5
ag56
ag56
aa(lp573
I10
aI5
ag56
ag56
aa(lp574
I10
aI5
ag56
ag56
aa(lp575
I10
aI5
ag56
ag56
aa(lp576
I10
aI5
ag56
ag56
aa(lp577
I10
aI5
ag56
ag56
aa(lp578
I10
aI5
ag56
ag56
aa(lp579
I10
aI5
ag56
ag56
aa(lp580
I10
aI5
ag56
ag56
aa(lp581
I10
aI5
ag56
ag56
aa(lp582
I10
aI5
ag56
ag56
aa(lp583
I10
aI5
ag56
ag56
aa(lp584
I10
aI5
ag56
ag56
aa(lp585
I10
aI5
ag56
ag56
aa(lp586
I10
aI5
ag56
ag56
aa(lp587
I10
aI5
ag56
ag56
aa(lp588
I10
aI5
ag56
ag56
aa(lp589
I10
aI5
ag56
ag56
aa(lp590
I10
aI5
ag56
ag56
aa(lp591
I11
aI5
ag56
ag4
aa(lp592
I11
aI5
ag56
ag4
aa(lp593
I11
aI5
ag56
ag56
aa(lp594
I11
aI5
ag56
ag56
aa(lp595
I11
aI5
ag56
ag56
aa(lp596
I11
aI5
ag56
ag56
aa(lp597
I11
aI5
ag56
ag56
aa(lp598
I11
aI5
ag56
ag56
aa(lp599
I11
aI5
ag56
ag56
aa(lp600
I11
aI5
ag56
ag56
aa(lp601
I11
aI5
ag56
ag56
aa(lp602
I11
aI5
ag56
ag56
aa(lp603
I11
aI5
ag56
ag56
aa(lp604
I11
aI5
ag56
ag56
aa(lp605
I11
aI5
ag56
ag56
aa(lp606
I11
aI5
ag56
ag56
aa(lp607
I11
aI5
ag56
ag56
aa(lp608
I11
aI5
ag56
ag56
aa(lp609
I11
aI5
ag56
ag56
aa(lp610
I11
aI5
ag56
ag56
aa(lp611
I11
aI5
ag56
ag56
aa(lp612
I11
aI5
ag56
ag56
aa(lp613
I11
aI5
ag56
ag56
aa(lp614
I11
aI5
ag56
ag56
aa(lp615
I11
aI5
ag56
ag56
aa(lp616
I11
aI5
ag56
ag56
aa(lp617
I11
aI5
ag56
ag56
aa(lp618
I11
aI5
ag56
ag56
aa(lp619
I11
aI5
ag56
ag56
aa(lp620
I11
aI5
ag56
ag56
aa(lp621
I11
aI5
ag56
ag56
aa(lp622
I11
aI5
ag56
ag56
aa(lp623
I11
aI5
ag56
ag56
aa(lp624
I11
aI5
ag56
ag56
aa(lp625
I11
aI5
ag56
ag56
aa(lp626
I11
aI5
ag56
ag56
aa(lp627
I11
aI5
ag56
ag56
aa(lp628
I12
aI1
ag7
ag7
aa(lp629
I12
aI1
ag7
ag7
aa(lp630
I12
aI1
ag7
ag4
aa(lp631
I12
aI1
ag7
ag4
aa(lp632
I12
aI1
ag7
ag4
aa(lp633
I12
aI1
ag7
ag4
aa(lp634
I12
aI1
ag7
ag4
aa(lp635
I12
aI1
ag7
ag4
aa(lp636
I12
aI1
ag7
ag4
aa(lp637
I12
aI1
ag7
ag4
aa(lp638
I12
aI1
ag7
ag4
aa(lp639
I12
aI1
ag7
ag4
aa(lp640
I12
aI1
ag7
ag4
aa(lp641
I12
aI1
ag7
ag4
aa(lp642
I12
aI1
ag7
ag4
aa(lp643
I12
aI1
ag7
ag4
aa(lp644
I12
aI1
ag7
ag4
aa(lp645
I12
aI1
ag7
ag4
aa(lp646
I12
aI1
ag7
ag4
aa(lp647
I12
aI1
ag7
ag4
aa(lp648
I12
aI1
ag7
ag4
aa(lp649
I12
aI1
ag7
ag4
aa(lp650
I12
aI1
ag7
ag4
aa(lp651
I12
aI1
ag7
ag4
aa(lp652
I12
aI1
ag7
ag4
aa(lp653
I12
aI1
ag7
ag4
aa(lp654
I12
aI1
ag7
ag4
aa(lp655
I12
aI1
ag7
ag4
aa(lp656
I12
aI1
ag7
ag4
aa(lp657
I12
aI1
ag7
ag4
aa(lp658
I12
aI1
ag7
ag4
aa(lp659
I12
aI1
ag7
ag4
aa(lp660
I12
aI1
ag7
ag4
aa(lp661
I12
aI1
ag7
ag4
aa(lp662
I12
aI1
ag7
ag7
aa(lp663
I12
aI1
ag7
ag7
aa(lp664
I12
aI1
ag7
ag7
aa(lp665
I12
aI1
ag7
ag7
aa(lp666
I12
aI1
ag7
ag7
aa(lp667
I12
aI1
ag7
ag7
aa(lp668
I12
aI1
ag7
ag7
aa(lp669
I12
aI1
ag7
ag7
aa(lp670
I12
aI1
ag7
ag7
aa(lp671
I12
aI1
ag7
ag7
aa(lp672
I12
aI1
ag7
ag7
aa(lp673
I12
aI1
ag7
ag7
aa(lp674
I12
aI1
ag7
ag7
aa(lp675
I12
aI1
ag7
ag7
aa(lp676
I12
aI1
ag7
ag7
aa(lp677
I12
aI1
ag7
ag7
aa(lp678
I12
aI1
ag7
ag7
aa(lp679
I12
aI1
ag7
ag7
aa(lp680
I12
aI1
ag7
ag7
aa(lp681
I12
aI1
ag7
ag7
aa(lp682
I12
aI1
ag7
ag7
aa(lp683
I12
aI1
ag7
ag7
aa(lp684
I12
aI1
ag7
ag7
aa(lp685
I12
aI1
ag7
ag7
aa(lp686
I12
aI1
ag7
ag7
aa(lp687
I12
aI1
ag7
ag4
aa(lp688
I12
aI1
ag7
ag4
aa(lp689
I12
aI1
ag7
ag7
aa(lp690
I12
aI1
ag7
ag7
aa(lp691
I12
aI1
ag7
ag7
aa(lp692
I12
aI1
ag7
ag4
aa(lp693
I12
aI1
ag7
ag4
aa(lp694
I12
aI1
ag7
ag4
aa(lp695
I12
aI1
ag7
ag4
aa(lp696
I12
aI1
ag7
ag4
aa(lp697
I12
aI1
ag7
ag4
aa(lp698
I13
aI0
ag4
ag7
aa(lp699
I13
aI0
ag4
ag7
aa(lp700
I13
aI0
ag4
ag4
aa(lp701
I13
aI0
ag4
ag4
aa(lp702
I13
aI0
ag4
ag4
aa(lp703
I13
aI0
ag4
ag4
aa(lp704
I13
aI0
ag4
ag4
aa(lp705
I13
aI0
ag4
ag4
aa(lp706
I13
aI0
ag4
ag4
aa(lp707
I13
aI0
ag4
ag4
aa(lp708
I13
aI0
ag4
ag4
aa(lp709
I13
aI0
ag4
ag4
aa(lp710
I13
aI0
ag4
ag4
aa(lp711
I13
aI0
ag4
ag4
aa(lp712
I13
aI0
ag4
ag4
aa(lp713
I13
aI0
ag4
ag4
aa(lp714
I13
aI0
ag4
ag4
aa(lp715
I13
aI0
ag4
ag4
aa(lp716
I13
aI0
ag4
ag4
aa(lp717
I13
aI0
ag4
ag4
aa(lp718
I13
aI0
ag4
ag4
aa(lp719
I13
aI0
ag4
ag4
aa(lp720
I13
aI0
ag4
ag4
aa(lp721
I13
aI0
ag4
ag4
aa(lp722
I13
aI0
ag4
ag4
aa(lp723
I13
aI0
ag4
ag4
aa(lp724
I13
aI0
ag4
ag4
aa(lp725
I13
aI0
ag4
ag4
aa(lp726
I13
aI0
ag4
ag4
aa(lp727
I13
aI0
ag4
ag4
aa(lp728
I13
aI0
ag4
ag4
aa(lp729
I13
aI0
ag4
ag4
aa(lp730
I13
aI0
ag4
ag4
aa(lp731
I13
aI0
ag4
ag4
aa(lp732
I13
aI0
ag4
ag4
aa(lp733
I13
aI0
ag4
ag4
aa(lp734
I13
aI0
ag4
ag4
aa(lp735
I14
aI8
ag7
ag7
aa(lp736
I14
aI8
ag7
ag7
aa(lp737
I14
aI8
ag7
ag7
aa(lp738
I14
aI8
ag7
ag4
aa(lp739
I14
aI8
ag7
ag4
aa(lp740
I14
aI8
ag7
ag7
aa(lp741
I14
aI8
ag7
ag7
aa(lp742
I14
aI8
ag7
ag7
aa(lp743
I14
aI8
ag7
ag7
aa(lp744
I14
aI8
ag7
ag7
aa(lp745
I14
aI8
ag7
ag7
aa(lp746
I14
aI8
ag7
ag7
aa(lp747
I14
aI8
ag7
ag7
aa(lp748
I14
aI8
ag7
ag7
aa(lp749
I14
aI8
ag7
ag7
aa(lp750
I14
aI8
ag7
ag7
aa(lp751
I14
aI8
ag7
ag7
aa(lp752
I14
aI8
ag7
ag7
aa(lp753
I14
aI8
ag7
ag7
aa(lp754
I14
aI8
ag7
ag7
aa(lp755
I14
aI8
ag7
ag7
aa(lp756
I14
aI8
ag7
ag7
aa(lp757
I14
aI8
ag7
ag7
aa(lp758
I14
aI8
ag7
ag7
aa(lp759
I14
aI8
ag7
ag56
aa(lp760
I14
aI8
ag7
ag56
aa(lp761
I14
aI8
ag7
ag7
aa(lp762
I14
aI8
ag7
ag7
aa(lp763
I14
aI8
ag7
ag7
aa(lp764
I14
aI8
ag7
ag7
aa(lp765
I14
aI8
ag7
ag7
aa(lp766
I14
aI8
ag7
ag7
aa(lp767
I14
aI8
ag7
ag7
aa(lp768
I14
aI8
ag7
ag7
aa(lp769
I14
aI8
ag7
ag7
aa(lp770
I14
aI8
ag7
ag7
aa(lp771
I14
aI8
ag7
ag7
aa(lp772
I14
aI8
ag7
ag7
aa(lp773
I14
aI8
ag7
ag7
aa(lp774
I14
aI8
ag7
ag7
aa(lp775
I14
aI8
ag7
ag7
aa(lp776
I14
aI8
ag7
ag7
aa(lp777
I14
aI8
ag7
ag7
aa(lp778
I14
aI8
ag7
ag7
aa(lp779
I14
aI8
ag7
ag7
aa(lp780
I14
aI8
ag7
ag7
aa(lp781
I14
aI8
ag7
ag7
aa(lp782
I14
aI8
ag7
ag7
aa(lp783
I14
aI8
ag7
ag7
aa(lp784
I14
aI8
ag7
ag7
aa(lp785
I14
aI8
ag7
ag7
aa(lp786
I14
aI8
ag7
ag7
aa(lp787
I14
aI8
ag7
ag7
aa(lp788
I14
aI8
ag7
ag7
aa(lp789
I14
aI8
ag7
ag7
aa(lp790
I14
aI8
ag7
ag7
aa(lp791
I14
aI8
ag7
ag7
aa(lp792
I14
aI8
ag7
ag7
aa(lp793
I14
aI8
ag7
ag7
aa(lp794
I14
aI8
ag7
ag7
aa(lp795
I14
aI8
ag7
ag7
aa(lp796
I14
aI8
ag7
ag7
aa(lp797
I14
aI8
ag7
ag7
aa(lp798
I14
aI8
ag7
ag7
aa(lp799
I14
aI8
ag7
ag7
aa(lp800
I14
aI8
ag7
ag7
aa(lp801
I14
aI8
ag7
ag7
aa(lp802
I14
aI8
ag7
ag7
aa(lp803
I14
aI8
ag7
ag7
aa(lp804
I14
aI8
ag7
ag7
aa(lp805
I15
aI7
ag4
ag7
aa(lp806
I15
aI7
ag4
ag4
aa(lp807
I15
aI7
ag4
ag4
aa(lp808
I15
aI7
ag4
ag4
aa(lp809
I15
aI7
ag4
ag4
aa(lp810
I15
aI7
ag4
ag4
aa(lp811
I15
aI7
ag4
ag4
aa(lp812
I15
aI7
ag4
ag4
aa(lp813
I15
aI7
ag4
ag4
aa(lp814
I15
aI7
ag4
ag4
aa(lp815
I15
aI7
ag4
ag4
aa(lp816
I15
aI7
ag4
ag4
aa(lp817
I15
aI7
ag4
ag4
aa(lp818
I15
aI7
ag4
ag4
aa(lp819
I15
aI7
ag4
ag4
aa(lp820
I15
aI7
ag4
ag4
aa(lp821
I15
aI7
ag4
ag4
aa(lp822
I15
aI7
ag4
ag4
aa(lp823
I15
aI7
ag4
ag4
aa(lp824
I15
aI7
ag4
ag7
aa(lp825
I15
aI7
ag4
ag7
aa(lp826
I15
aI7
ag4
ag7
aa(lp827
I15
aI7
ag4
ag7
aa(lp828
I15
aI7
ag4
ag7
aa(lp829
I15
aI7
ag4
ag4
aa(lp830
I15
aI7
ag4
ag4
aa(lp831
I15
aI7
ag4
ag4
aa(lp832
I15
aI7
ag4
ag4
aa(lp833
I15
aI7
ag4
ag4
aa(lp834
I15
aI7
ag4
ag4
aa(lp835
I15
aI7
ag4
ag4
aa(lp836
I15
aI7
ag4
ag4
aa(lp837
I15
aI7
ag4
ag4
aa(lp838
I15
aI7
ag4
ag4
aa(lp839
I15
aI7
ag4
ag4
aa(lp840
I15
aI7
ag4
ag4
aa(lp841
I15
aI7
ag4
ag4
aa(lp842
I15
aI7
ag4
ag4
aa(lp843
I15
aI7
ag4
ag4
aa(lp844
I15
aI7
ag4
ag4
aa(lp845
I15
aI7
ag4
ag4
aa(lp846
I15
aI7
ag4
ag4
aa(lp847
I15
aI7
ag4
ag4
aa(lp848
I15
aI7
ag4
ag4
aa(lp849
I15
aI7
ag4
ag4
aa(lp850
I15
aI7
ag4
ag4
aa(lp851
I15
aI7
ag4
ag4
aa(lp852
I15
aI7
ag4
ag4
aa(lp853
I15
aI7
ag4
ag4
aa(lp854
I15
aI7
ag4
ag4
aa(lp855
I15
aI7
ag4
ag4
aa(lp856
I15
aI7
ag4
ag4
aa(lp857
I16
aI4
ag4
ag7
aa(lp858
I16
aI4
ag4
ag7
aa(lp859
I16
aI4
ag4
ag7
aa(lp860
I16
aI4
ag4
ag4
aa(lp861
I16
aI4
ag4
ag4
aa(lp862
I16
aI4
ag4
ag4
aa(lp863
I16
aI4
ag4
ag4
aa(lp864
I16
aI4
ag4
ag4
aa(lp865
I16
aI4
ag4
ag4
aa(lp866
I16
aI4
ag4
ag4
aa(lp867
I16
aI4
ag4
ag4
aa(lp868
I16
aI4
ag4
ag4
aa(lp869
I16
aI4
ag4
ag4
aa(lp870
I16
aI4
ag4
ag4
aa(lp871
I16
aI4
ag4
ag4
aa(lp872
I16
aI4
ag4
ag4
aa(lp873
I16
aI4
ag4
ag4
aa(lp874
I16
aI4
ag4
ag4
aa(lp875
I16
aI4
ag4
ag4
aa(lp876
I16
aI4
ag4
ag4
aa(lp877
I16
aI4
ag4
ag4
aa(lp878
I16
aI4
ag4
ag4
aa(lp879
I16
aI4
ag4
ag4
aa(lp880
I16
aI4
ag4
ag4
aa(lp881
I16
aI4
ag4
ag4
aa(lp882
I16
aI4
ag4
ag4
aa(lp883
I16
aI4
ag4
ag4
aa(lp884
I16
aI4
ag4
ag4
aa(lp885
I16
aI4
ag4
ag4
aa(lp886
I16
aI4
ag4
ag4
aa(lp887
I16
aI4
ag4
ag4
aa(lp888
I16
aI4
ag4
ag4
aa(lp889
I16
aI4
ag4
ag4
aa(lp890
I16
aI4
ag4
ag4
aa(lp891
I16
aI4
ag4
ag4
aa(lp892
I16
aI4
ag4
ag4
aa(lp893
I16
aI4
ag4
ag4
aa(lp894
I16
aI4
ag4
ag4
aa(lp895
I16
aI4
ag4
ag4
aa(lp896
I16
aI4
ag4
ag4
aa(lp897
I16
aI4
ag4
ag4
aa(lp898
I16
aI4
ag4
ag4
aa(lp899
I16
aI4
ag4
ag4
aa(lp900
I16
aI4
ag4
ag4
aa(lp901
I16
aI4
ag4
ag4
aa(lp902
I16
aI4
ag4
ag4
aa(lp903
I16
aI4
ag4
ag4
aa(lp904
I16
aI4
ag4
ag4
aa(lp905
I16
aI4
ag4
ag4
aa(lp906
I16
aI4
ag4
ag4
aa(lp907
I16
aI4
ag4
ag4
aa(lp908
I17
aI6
ag7
ag7
aa(lp909
I17
aI6
ag7
ag7
aa(lp910
I17
aI6
ag7
ag7
aa(lp911
I17
aI6
ag7
ag7
aa(lp912
I17
aI6
ag7
ag7
aa(lp913
I17
aI6
ag7
ag7
aa(lp914
I17
aI6
ag7
ag56
aa(lp915
I17
aI6
ag7
ag56
aa(lp916
I17
aI6
ag7
ag56
aa(lp917
I17
aI6
ag7
ag56
aa(lp918
I17
aI6
ag7
ag56
aa(lp919
I17
aI6
ag7
ag7
aa(lp920
I17
aI6
ag7
ag7
aa(lp921
I17
aI6
ag7
ag7
aa(lp922
I17
aI6
ag7
ag7
aa(lp923
I17
aI6
ag7
ag7
aa(lp924
I17
aI6
ag7
ag7
aa(lp925
I17
aI6
ag7
ag7
aa(lp926
I17
aI6
ag7
ag7
aa(lp927
I17
aI6
ag7
ag7
aa(lp928
I17
aI6
ag7
ag7
aa(lp929
I17
aI6
ag7
ag7
aa(lp930
I17
aI6
ag7
ag7
aa(lp931
I17
aI6
ag7
ag7
aa(lp932
I17
aI6
ag7
ag7
aa(lp933
I17
aI6
ag7
ag7
aa(lp934
I17
aI6
ag7
ag7
aa(lp935
I17
aI6
ag7
ag7
aa(lp936
I17
aI6
ag7
ag7
aa(lp937
I17
aI6
ag7
ag7
aa(lp938
I17
aI6
ag7
ag7
aa(lp939
I17
aI6
ag7
ag7
aa(lp940
I17
aI6
ag7
ag7
aa(lp941
I17
aI6
ag7
ag7
aa(lp942
I17
aI6
ag7
ag7
aa(lp943
I17
aI6
ag7
ag7
aa(lp944
I17
aI6
ag7
ag7
aa(lp945
I17
aI6
ag7
ag7
aa(lp946
I17
aI6
ag7
ag7
aa(lp947
I17
aI6
ag7
ag7
aa(lp948
I17
aI6
ag7
ag7
aa(lp949
I17
aI6
ag7
ag7
aa(lp950
I17
aI6
ag7
ag7
aa(lp951
I17
aI6
ag7
ag7
aa(lp952
I17
aI6
ag7
ag7
aa(lp953
I17
aI6
ag7
ag7
aa(lp954
I17
aI6
ag7
ag7
aa(lp955
I17
aI6
ag7
ag7
aa(lp956
I17
aI6
ag7
ag7
aa(lp957
I17
aI6
ag7
ag7
aa(lp958
I17
aI6
ag7
ag7
aa(lp959
I17
aI6
ag7
ag7
aa(lp960
I17
aI6
ag7
ag7
aa(lp961
I17
aI6
ag7
ag7
aa(lp962
I17
aI6
ag7
ag7
aa(lp963
I17
aI6
ag7
ag7
aa(lp964
I17
aI6
ag7
ag7
aa(lp965
I17
aI6
ag7
ag7
aa(lp966
I17
aI6
ag7
ag7
aa(lp967
I17
aI6
ag7
ag7
aa(lp968
I17
aI6
ag7
ag7
aa(lp969
I17
aI6
ag7
ag7
aa(lp970
I17
aI6
ag7
ag7
aa(lp971
I17
aI6
ag7
ag7
aa(lp972
I17
aI6
ag7
ag7
aa(lp973
I17
aI6
ag7
ag7
aa(lp974
I17
aI6
ag7
ag7
aa(lp975
I17
aI6
ag7
ag7
aa(lp976
I17
aI6
ag7
ag7
aa(lp977
I17
aI6
ag7
ag7
aasS'results'
p978
(lp979
S'correct'
p980
ag980
ag980
ag980
aS'unfinished'
p981
ag980
ag980
ag980
ag980
ag980
ag980
ag980
ag980
ag980
ag980
ag980
ag980
ag980
asS'times'
p982
(lp983
F93.0
aF79.9989999999998
aF140.0020000000004
aF122.0
aF140.0010000000002
aF139.9979999999996
aF58.00200000000041
aF76.0
aF140.0
aF81.9989999999998
aF80.0010000000002
aF71.9989999999998
aF140.0
aF71.99699999999939
aF140.0010000000002
aF101.99699999999939
aF99.9989999999998
aF139.9940000000006
as.