(dp0
S'history'
p1
(lp2
(lp3
I0
aI1
aS'B3'
p4
aS'B1'
p5
aa(lp6
I0
aI1
ag4
aS'B2'
p7
aa(lp8
I0
aI1
ag4
ag4
aa(lp9
I0
aI1
ag4
ag4
aa(lp10
I0
aI1
ag4
ag7
aa(lp11
I0
aI1
ag4
ag4
aa(lp12
I0
aI1
ag4
ag4
aa(lp13
I0
aI1
ag4
ag5
aa(lp14
I0
aI1
ag4
ag4
aa(lp15
I0
aI1
ag4
ag4
aa(lp16
I0
aI1
ag4
ag4
aa(lp17
I0
aI1
ag4
ag4
aa(lp18
I0
aI1
ag4
ag4
aa(lp19
I0
aI1
ag4
ag4
aa(lp20
I0
aI1
ag4
ag5
aa(lp21
I0
aI1
ag4
ag5
aa(lp22
I0
aI1
ag4
ag4
aa(lp23
I0
aI1
ag4
ag4
aa(lp24
I0
aI1
ag4
ag4
aa(lp25
I0
aI1
ag4
ag5
aa(lp26
I0
aI1
ag4
ag5
aa(lp27
I0
aI1
ag4
ag5
aa(lp28
I0
aI1
ag4
ag5
aa(lp29
I0
aI1
ag4
ag5
aa(lp30
I0
aI1
ag4
ag5
aa(lp31
I0
aI1
ag4
ag5
aa(lp32
I0
aI1
ag4
ag4
aa(lp33
I0
aI1
ag4
ag4
aa(lp34
I0
aI1
ag4
ag4
aa(lp35
I0
aI1
ag4
ag4
aa(lp36
I0
aI1
ag4
ag5
aa(lp37
I0
aI1
ag4
ag5
aa(lp38
I0
aI1
ag4
ag4
aa(lp39
I0
aI1
ag4
ag4
aa(lp40
I0
aI1
ag4
ag5
aa(lp41
I0
aI1
ag4
ag5
aa(lp42
I0
aI1
ag4
ag5
aa(lp43
I0
aI1
ag4
ag5
aa(lp44
I0
aI1
ag4
ag4
aa(lp45
I0
aI1
ag4
ag5
aa(lp46
I0
aI1
ag4
ag5
aa(lp47
I0
aI1
ag4
ag5
aa(lp48
I0
aI1
ag4
ag5
aa(lp49
I0
aI1
ag4
ag5
aa(lp50
I0
aI1
ag4
ag5
aa(lp51
I0
aI1
ag4
ag5
aa(lp52
I0
aI1
ag4
ag7
aa(lp53
I0
aI1
ag4
ag7
aa(lp54
I0
aI1
ag4
ag7
aa(lp55
I0
aI1
ag4
ag4
aa(lp56
I0
aI1
ag4
ag4
aa(lp57
I0
aI1
ag4
ag7
aa(lp58
I0
aI1
ag4
ag7
aa(lp59
I0
aI1
ag4
ag7
aa(lp60
I0
aI1
ag4
ag7
aa(lp61
I0
aI1
ag4
ag7
aa(lp62
I0
aI1
ag4
ag5
aa(lp63
I0
aI1
ag4
ag5
aa(lp64
I0
aI1
ag4
ag5
aa(lp65
I0
aI1
ag4
ag4
aa(lp66
I0
aI1
ag4
ag4
aa(lp67
I0
aI1
ag4
ag4
aa(lp68
I0
aI1
ag4
ag4
aa(lp69
I0
aI1
ag4
ag4
aa(lp70
I0
aI1
ag4
ag5
aa(lp71
I0
aI1
ag4
ag4
aa(lp72
I0
aI1
ag4
ag4
aa(lp73
I0
aI1
ag4
ag4
aa(lp74
I0
aI1
ag4
ag4
aa(lp75
I0
aI1
ag4
ag4
aa(lp76
I1
aI8
ag4
ag7
aa(lp77
I1
aI8
ag4
ag7
aa(lp78
I1
aI8
ag4
ag7
aa(lp79
I1
aI8
ag4
ag7
aa(lp80
I1
aI8
ag4
ag7
aa(lp81
I1
aI8
ag4
ag4
aa(lp82
I1
aI8
ag4
ag4
aa(lp83
I1
aI8
ag4
ag7
aa(lp84
I1
aI8
ag4
ag7
aa(lp85
I1
aI8
ag4
ag7
aa(lp86
I1
aI8
ag4
ag4
aa(lp87
I1
aI8
ag4
ag4
aa(lp88
I1
aI8
ag4
ag4
aa(lp89
I1
aI8
ag4
ag4
aa(lp90
I1
aI8
ag4
ag4
aa(lp91
I1
aI8
ag4
ag4
aa(lp92
I1
aI8
ag4
ag4
aa(lp93
I1
aI8
ag4
ag4
aa(lp94
I1
aI8
ag4
ag4
aa(lp95
I1
aI8
ag4
ag4
aa(lp96
I1
aI8
ag4
ag4
aa(lp97
I1
aI8
ag4
ag5
aa(lp98
I1
aI8
ag4
ag5
aa(lp99
I1
aI8
ag4
ag4
aa(lp100
I1
aI8
ag4
ag4
aa(lp101
I1
aI8
ag4
ag4
aa(lp102
I1
aI8
ag4
ag4
aa(lp103
I1
aI8
ag4
ag4
aa(lp104
I1
aI8
ag4
ag4
aa(lp105
I1
aI8
ag4
ag4
aa(lp106
I1
aI8
ag4
ag4
aa(lp107
I1
aI8
ag4
ag4
aa(lp108
I1
aI8
ag4
ag4
aa(lp109
I1
aI8
ag4
ag4
aa(lp110
I1
aI8
ag4
ag4
aa(lp111
I1
aI8
ag4
ag4
aa(lp112
I1
aI8
ag4
ag4
aa(lp113
I1
aI8
ag4
ag5
aa(lp114
I1
aI8
ag4
ag5
aa(lp115
I1
aI8
ag4
ag5
aa(lp116
I1
aI8
ag4
ag5
aa(lp117
I1
aI8
ag4
ag4
aa(lp118
I1
aI8
ag4
ag4
aa(lp119
I1
aI8
ag4
ag4
aa(lp120
I1
aI8
ag4
ag4
aa(lp121
I1
aI8
ag4
ag4
aa(lp122
I1
aI8
ag4
ag4
aa(lp123
I1
aI8
ag4
ag4
aa(lp124
I1
aI8
ag4
ag4
aa(lp125
I1
aI8
ag4
ag4
aa(lp126
I1
aI8
ag4
ag4
aa(lp127
I1
aI8
ag4
ag4
aa(lp128
I1
aI8
ag4
ag4
aa(lp129
I1
aI8
ag4
ag4
aa(lp130
I1
aI8
ag4
ag4
aa(lp131
I1
aI8
ag4
ag4
aa(lp132
I1
aI8
ag4
ag4
aa(lp133
I1
aI8
ag4
ag4
aa(lp134
I1
aI8
ag4
ag4
aa(lp135
I1
aI8
ag4
ag4
aa(lp136
I1
aI8
ag4
ag4
aa(lp137
I1
aI8
ag4
ag4
aa(lp138
I1
aI8
ag4
ag4
aa(lp139
I1
aI8
ag4
ag4
aa(lp140
I1
aI8
ag4
ag4
aa(lp141
I1
aI8
ag4
ag4
aa(lp142
I1
aI8
ag4
ag4
aa(lp143
I1
aI8
ag4
ag4
aa(lp144
I1
aI8
ag4
ag4
aa(lp145
I1
aI8
ag4
ag4
aa(lp146
I2
aI3
ag7
ag7
aa(lp147
I2
aI3
ag7
ag7
aa(lp148
I2
aI3
ag7
ag7
aa(lp149
I2
aI3
ag7
ag7
aa(lp150
I2
aI3
ag7
ag7
aa(lp151
I2
aI3
ag7
ag7
aa(lp152
I2
aI3
ag7
ag7
aa(lp153
I2
aI3
ag7
ag7
aa(lp154
I2
aI3
ag7
ag7
aa(lp155
I2
aI3
ag7
ag7
aa(lp156
I2
aI3
ag7
ag7
aa(lp157
I2
aI3
ag7
ag7
aa(lp158
I2
aI3
ag7
ag7
aa(lp159
I2
aI3
ag7
ag7
aa(lp160
I2
aI3
ag7
ag7
aa(lp161
I2
aI3
ag7
ag7
aa(lp162
I2
aI3
ag7
ag7
aa(lp163
I2
aI3
ag7
ag7
aa(lp164
I2
aI3
ag7
ag7
aa(lp165
I2
aI3
ag7
ag7
aa(lp166
I2
aI3
ag7
ag7
aa(lp167
I2
aI3
ag7
ag7
aa(lp168
I3
aI7
ag5
ag4
aa(lp169
I3
aI7
ag5
ag7
aa(lp170
I3
aI7
ag5
ag4
aa(lp171
I3
aI7
ag5
ag4
aa(lp172
I3
aI7
ag5
ag4
aa(lp173
I3
aI7
ag5
ag5
aa(lp174
I3
aI7
ag5
ag5
aa(lp175
I3
aI7
ag5
ag4
aa(lp176
I3
aI7
ag5
ag4
aa(lp177
I3
aI7
ag5
ag7
aa(lp178
I3
aI7
ag5
ag5
aa(lp179
I3
aI7
ag5
ag5
aa(lp180
I3
aI7
ag5
ag5
aa(lp181
I3
aI7
ag5
ag5
aa(lp182
I3
aI7
ag5
ag5
aa(lp183
I3
aI7
ag5
ag5
aa(lp184
I3
aI7
ag5
ag5
aa(lp185
I3
aI7
ag5
ag5
aa(lp186
I3
aI7
ag5
ag5
aa(lp187
I3
aI7
ag5
ag5
aa(lp188
I3
aI7
ag5
ag5
aa(lp189
I3
aI7
ag5
ag5
aa(lp190
I3
aI7
ag5
ag5
aa(lp191
I3
aI7
ag5
ag5
aa(lp192
I3
aI7
ag5
ag5
aa(lp193
I3
aI7
ag5
ag5
aa(lp194
I3
aI7
ag5
ag5
aa(lp195
I3
aI7
ag5
ag5
aa(lp196
I3
aI7
ag5
ag5
aa(lp197
I3
aI7
ag5
ag5
aa(lp198
I3
aI7
ag5
ag5
aa(lp199
I3
aI7
ag5
ag5
aa(lp200
I3
aI7
ag5
ag5
aa(lp201
I3
aI7
ag5
ag5
aa(lp202
I3
aI7
ag5
ag5
aa(lp203
I3
aI7
ag5
ag5
aa(lp204
I3
aI7
ag5
ag5
aa(lp205
I3
aI7
ag5
ag5
aa(lp206
I3
aI7
ag5
ag5
aa(lp207
I3
aI7
ag5
ag5
aa(lp208
I3
aI7
ag5
ag5
aa(lp209
I3
aI7
ag5
ag5
aa(lp210
I3
aI7
ag5
ag5
aa(lp211
I3
aI7
ag5
ag5
aa(lp212
I3
aI7
ag5
ag5
aa(lp213
I3
aI7
ag5
ag5
aa(lp214
I3
aI7
ag5
ag5
aa(lp215
I3
aI7
ag5
ag5
aa(lp216
I3
aI7
ag5
ag5
aa(lp217
I3
aI7
ag5
ag5
aa(lp218
I3
aI7
ag5
ag5
aa(lp219
I3
aI7
ag5
ag5
aa(lp220
I3
aI7
ag5
ag5
aa(lp221
I3
aI7
ag5
ag5
aa(lp222
I3
aI7
ag5
ag5
aa(lp223
I3
aI7
ag5
ag7
aa(lp224
I3
aI7
ag5
ag5
aa(lp225
I3
aI7
ag5
ag5
aa(lp226
I3
aI7
ag5
ag5
aa(lp227
I3
aI7
ag5
ag5
aa(lp228
I3
aI7
ag5
ag5
aa(lp229
I3
aI7
ag5
ag5
aa(lp230
I3
aI7
ag5
ag5
aa(lp231
I3
aI7
ag5
ag5
aa(lp232
I3
aI7
ag5
ag5
aa(lp233
I4
aI5
ag7
ag7
aa(lp234
I4
aI5
ag7
ag7
aa(lp235
I4
aI5
ag7
ag7
aa(lp236
I4
aI5
ag7
ag7
aa(lp237
I4
aI5
ag7
ag7
aa(lp238
I4
aI5
ag7
ag7
aa(lp239
I4
aI5
ag7
ag7
aa(lp240
I4
aI5
ag7
ag7
aa(lp241
I4
aI5
ag7
ag7
aa(lp242
I4
aI5
ag7
ag7
aa(lp243
I4
aI5
ag7
ag7
aa(lp244
I4
aI5
ag7
ag7
aa(lp245
I4
aI5
ag7
ag7
aa(lp246
I4
aI5
ag7
ag7
aa(lp247
I4
aI5
ag7
ag7
aa(lp248
I4
aI5
ag7
ag7
aa(lp249
I4
aI5
ag7
ag7
aa(lp250
I4
aI5
ag7
ag7
aa(lp251
I4
aI5
ag7
ag7
aa(lp252
I4
aI5
ag7
ag7
aa(lp253
I4
aI5
ag7
ag7
aa(lp254
I4
aI5
ag7
ag7
aa(lp255
I4
aI5
ag7
ag7
aa(lp256
I4
aI5
ag7
ag7
aa(lp257
I4
aI5
ag7
ag7
aa(lp258
I4
aI5
ag7
ag7
aa(lp259
I4
aI5
ag7
ag7
aa(lp260
I4
aI5
ag7
ag7
aa(lp261
I4
aI5
ag7
ag7
aa(lp262
I4
aI5
ag7
ag7
aa(lp263
I4
aI5
ag7
ag7
aa(lp264
I4
aI5
ag7
ag7
aa(lp265
I4
aI5
ag7
ag7
aa(lp266
I4
aI5
ag7
ag7
aa(lp267
I4
aI5
ag7
ag7
aa(lp268
I5
aI4
ag5
ag4
aa(lp269
I5
aI4
ag5
ag4
aa(lp270
I5
aI4
ag5
ag4
aa(lp271
I5
aI4
ag5
ag4
aa(lp272
I5
aI4
ag5
ag4
aa(lp273
I5
aI4
ag5
ag4
aa(lp274
I5
aI4
ag5
ag5
aa(lp275
I5
aI4
ag5
ag5
aa(lp276
I5
aI4
ag5
ag5
aa(lp277
I5
aI4
ag5
ag5
aa(lp278
I5
aI4
ag5
ag5
aa(lp279
I5
aI4
ag5
ag5
aa(lp280
I5
aI4
ag5
ag5
aa(lp281
I5
aI4
ag5
ag5
aa(lp282
I5
aI4
ag5
ag4
aa(lp283
I5
aI4
ag5
ag4
aa(lp284
I5
aI4
ag5
ag5
aa(lp285
I5
aI4
ag5
ag5
aa(lp286
I5
aI4
ag5
ag5
aa(lp287
I5
aI4
ag5
ag5
aa(lp288
I5
aI4
ag5
ag5
aa(lp289
I5
aI4
ag5
ag5
aa(lp290
I5
aI4
ag5
ag5
aa(lp291
I5
aI4
ag5
ag5
aa(lp292
I5
aI4
ag5
ag5
aa(lp293
I5
aI4
ag5
ag5
aa(lp294
I5
aI4
ag5
ag4
aa(lp295
I5
aI4
ag5
ag4
aa(lp296
I5
aI4
ag5
ag4
aa(lp297
I5
aI4
ag5
ag5
aa(lp298
I5
aI4
ag5
ag5
aa(lp299
I5
aI4
ag5
ag5
aa(lp300
I5
aI4
ag5
ag5
aa(lp301
I5
aI4
ag5
ag5
aa(lp302
I5
aI4
ag5
ag5
aa(lp303
I5
aI4
ag5
ag5
aa(lp304
I5
aI4
ag5
ag5
aa(lp305
I5
aI4
ag5
ag5
aa(lp306
I5
aI4
ag5
ag5
aa(lp307
I5
aI4
ag5
ag5
aa(lp308
I5
aI4
ag5
ag5
aa(lp309
I5
aI4
ag5
ag5
aa(lp310
I5
aI4
ag5
ag5
aa(lp311
I5
aI4
ag5
ag5
aa(lp312
I5
aI4
ag5
ag5
aa(lp313
I5
aI4
ag5
ag5
aa(lp314
I5
aI4
ag5
ag5
aa(lp315
I5
aI4
ag5
ag5
aa(lp316
I5
aI4
ag5
ag5
aa(lp317
I5
aI4
ag5
ag5
aa(lp318
I5
aI4
ag5
ag5
aa(lp319
I5
aI4
ag5
ag5
aa(lp320
I5
aI4
ag5
ag4
aa(lp321
I5
aI4
ag5
ag4
aa(lp322
I5
aI4
ag5
ag4
aa(lp323
I5
aI4
ag5
ag4
aa(lp324
I5
aI4
ag5
ag5
aa(lp325
I5
aI4
ag5
ag5
aa(lp326
I5
aI4
ag5
ag5
aa(lp327
I5
aI4
ag5
ag5
aa(lp328
I5
aI4
ag5
ag5
aa(lp329
I5
aI4
ag5
ag5
aa(lp330
I5
aI4
ag5
ag5
aa(lp331
I5
aI4
ag5
ag5
aa(lp332
I5
aI4
ag5
ag5
aa(lp333
I5
aI4
ag5
ag5
aa(lp334
I5
aI4
ag5
ag4
aa(lp335
I5
aI4
ag5
ag5
aa(lp336
I5
aI4
ag5
ag5
aa(lp337
I5
aI4
ag5
ag5
aa(lp338
I6
aI4
ag5
ag7
aa(lp339
I6
aI4
ag5
ag7
aa(lp340
I6
aI4
ag5
ag5
aa(lp341
I6
aI4
ag5
ag5
aa(lp342
I6
aI4
ag5
ag5
aa(lp343
I6
aI4
ag5
ag7
aa(lp344
I6
aI4
ag5
ag5
aa(lp345
I6
aI4
ag5
ag5
aa(lp346
I6
aI4
ag5
ag5
aa(lp347
I6
aI4
ag5
ag4
aa(lp348
I6
aI4
ag5
ag5
aa(lp349
I6
aI4
ag5
ag5
aa(lp350
I6
aI4
ag5
ag5
aa(lp351
I6
aI4
ag5
ag5
aa(lp352
I6
aI4
ag5
ag5
aa(lp353
I6
aI4
ag5
ag5
aa(lp354
I6
aI4
ag5
ag5
aa(lp355
I6
aI4
ag5
ag5
aa(lp356
I6
aI4
ag5
ag5
aa(lp357
I6
aI4
ag5
ag4
aa(lp358
I6
aI4
ag5
ag4
aa(lp359
I6
aI4
ag5
ag5
aa(lp360
I6
aI4
ag5
ag5
aa(lp361
I6
aI4
ag5
ag5
aa(lp362
I6
aI4
ag5
ag5
aa(lp363
I6
aI4
ag5
ag5
aa(lp364
I6
aI4
ag5
ag5
aa(lp365
I6
aI4
ag5
ag5
aa(lp366
I6
aI4
ag5
ag7
aa(lp367
I6
aI4
ag5
ag7
aa(lp368
I6
aI4
ag5
ag7
aa(lp369
I6
aI4
ag5
ag5
aa(lp370
I6
aI4
ag5
ag5
aa(lp371
I6
aI4
ag5
ag4
aa(lp372
I6
aI4
ag5
ag5
aa(lp373
I6
aI4
ag5
ag5
aa(lp374
I6
aI4
ag5
ag5
aa(lp375
I6
aI4
ag5
ag5
aa(lp376
I6
aI4
ag5
ag5
aa(lp377
I6
aI4
ag5
ag5
aa(lp378
I6
aI4
ag5
ag5
aa(lp379
I6
aI4
ag5
ag5
aa(lp380
I6
aI4
ag5
ag5
aa(lp381
I6
aI4
ag5
ag5
aa(lp382
I6
aI4
ag5
ag5
aa(lp383
I6
aI4
ag5
ag5
aa(lp384
I6
aI4
ag5
ag5
aa(lp385
I6
aI4
ag5
ag5
aa(lp386
I6
aI4
ag5
ag5
aa(lp387
I6
aI4
ag5
ag5
aa(lp388
I6
aI4
ag5
ag5
aa(lp389
I6
aI4
ag5
ag5
aa(lp390
I6
aI4
ag5
ag4
aa(lp391
I6
aI4
ag5
ag4
aa(lp392
I6
aI4
ag5
ag4
aa(lp393
I6
aI4
ag5
ag5
aa(lp394
I6
aI4
ag5
ag4
aa(lp395
I6
aI4
ag5
ag5
aa(lp396
I6
aI4
ag5
ag5
aa(lp397
I6
aI4
ag5
ag5
aa(lp398
I6
aI4
ag5
ag5
aa(lp399
I6
aI4
ag5
ag5
aa(lp400
I6
aI4
ag5
ag5
aa(lp401
I6
aI4
ag5
ag5
aa(lp402
I6
aI4
ag5
ag5
aa(lp403
I6
aI4
ag5
ag5
aa(lp404
I6
aI4
ag5
ag5
aa(lp405
I6
aI4
ag5
ag5
aa(lp406
I6
aI4
ag5
ag5
aa(lp407
I6
aI4
ag5
ag5
aa(lp408
I7
aI6
ag4
ag5
aa(lp409
I7
aI6
ag4
ag5
aa(lp410
I7
aI6
ag4
ag5
aa(lp411
I8
aI3
ag7
ag7
aa(lp412
I8
aI3
ag7
ag7
aa(lp413
I8
aI3
ag7
ag7
aa(lp414
I8
aI3
ag7
ag7
aa(lp415
I8
aI3
ag7
ag7
aa(lp416
I8
aI3
ag7
ag7
aa(lp417
I8
aI3
ag7
ag7
aa(lp418
I8
aI3
ag7
ag7
aa(lp419
I8
aI3
ag7
ag7
aa(lp420
I8
aI3
ag7
ag7
aa(lp421
I8
aI3
ag7
ag7
aa(lp422
I8
aI3
ag7
ag7
aa(lp423
I8
aI3
ag7
ag7
aa(lp424
I8
aI3
ag7
ag7
aa(lp425
I8
aI3
ag7
ag7
aa(lp426
I8
aI3
ag7
ag7
aa(lp427
I8
aI3
ag7
ag7
aa(lp428
I8
aI3
ag7
ag7
aa(lp429
I8
aI3
ag7
ag7
aa(lp430
I8
aI3
ag7
ag7
aa(lp431
I8
aI3
ag7
ag7
aa(lp432
I8
aI3
ag7
ag7
aa(lp433
I8
aI3
ag7
ag7
aa(lp434
I8
aI3
ag7
ag7
aa(lp435
I8
aI3
ag7
ag7
aa(lp436
I8
aI3
ag7
ag7
aa(lp437
I8
aI3
ag7
ag7
aa(lp438
I8
aI3
ag7
ag7
aa(lp439
I8
aI3
ag7
ag7
aa(lp440
I8
aI3
ag7
ag7
aa(lp441
I8
aI3
ag7
ag7
aa(lp442
I8
aI3
ag7
ag7
aa(lp443
I8
aI3
ag7
ag7
aa(lp444
I8
aI3
ag7
ag7
aa(lp445
I8
aI3
ag7
ag7
aa(lp446
I8
aI3
ag7
ag7
aa(lp447
I8
aI3
ag7
ag7
aa(lp448
I9
aI0
ag5
ag7
aa(lp449
I9
aI0
ag5
ag5
aa(lp450
I9
aI0
ag5
ag5
aa(lp451
I9
aI0
ag5
ag5
aa(lp452
I9
aI0
ag5
ag5
aa(lp453
I9
aI0
ag5
ag7
aa(lp454
I9
aI0
ag5
ag7
aa(lp455
I9
aI0
ag5
ag5
aa(lp456
I9
aI0
ag5
ag5
aa(lp457
I9
aI0
ag5
ag5
aa(lp458
I9
aI0
ag5
ag5
aa(lp459
I9
aI0
ag5
ag5
aa(lp460
I9
aI0
ag5
ag5
aa(lp461
I9
aI0
ag5
ag5
aa(lp462
I9
aI0
ag5
ag5
aa(lp463
I9
aI0
ag5
ag5
aa(lp464
I9
aI0
ag5
ag5
aa(lp465
I9
aI0
ag5
ag5
aa(lp466
I9
aI0
ag5
ag5
aa(lp467
I9
aI0
ag5
ag5
aa(lp468
I9
aI0
ag5
ag5
aa(lp469
I9
aI0
ag5
ag5
aa(lp470
I9
aI0
ag5
ag5
aa(lp471
I9
aI0
ag5
ag5
aa(lp472
I9
aI0
ag5
ag5
aa(lp473
I9
aI0
ag5
ag5
aa(lp474
I9
aI0
ag5
ag5
aa(lp475
I9
aI0
ag5
ag5
aa(lp476
I9
aI0
ag5
ag5
aa(lp477
I9
aI0
ag5
ag5
aa(lp478
I9
aI0
ag5
ag5
aa(lp479
I9
aI0
ag5
ag5
aa(lp480
I9
aI0
ag5
ag5
aa(lp481
I9
aI0
ag5
ag5
aa(lp482
I9
aI0
ag5
ag5
aa(lp483
I9
aI0
ag5
ag5
aa(lp484
I9
aI0
ag5
ag5
aa(lp485
I9
aI0
ag5
ag5
aa(lp486
I9
aI0
ag5
ag5
aa(lp487
I9
aI0
ag5
ag5
aa(lp488
I9
aI0
ag5
ag5
aa(lp489
I9
aI0
ag5
ag5
aa(lp490
I9
aI0
ag5
ag5
aa(lp491
I9
aI0
ag5
ag5
aa(lp492
I9
aI0
ag5
ag5
aa(lp493
I9
aI0
ag5
ag5
aa(lp494
I9
aI0
ag5
ag5
aa(lp495
I9
aI0
ag5
ag5
aa(lp496
I9
aI0
ag5
ag5
aa(lp497
I10
aI7
ag5
ag5
aa(lp498
I10
aI7
ag5
ag5
aa(lp499
I10
aI7
ag5
ag5
aa(lp500
I10
aI7
ag5
ag5
aa(lp501
I10
aI7
ag5
ag5
aa(lp502
I10
aI7
ag5
ag5
aa(lp503
I10
aI7
ag5
ag5
aa(lp504
I10
aI7
ag5
ag5
aa(lp505
I10
aI7
ag5
ag5
aa(lp506
I10
aI7
ag5
ag5
aa(lp507
I10
aI7
ag5
ag5
aa(lp508
I10
aI7
ag5
ag5
aa(lp509
I10
aI7
ag5
ag5
aa(lp510
I10
aI7
ag5
ag5
aa(lp511
I10
aI7
ag5
ag5
aa(lp512
I10
aI7
ag5
ag5
aa(lp513
I10
aI7
ag5
ag5
aa(lp514
I10
aI7
ag5
ag5
aa(lp515
I10
aI7
ag5
ag5
aa(lp516
I10
aI7
ag5
ag5
aa(lp517
I10
aI7
ag5
ag5
aa(lp518
I10
aI7
ag5
ag5
aa(lp519
I10
aI7
ag5
ag5
aa(lp520
I10
aI7
ag5
ag5
aa(lp521
I10
aI7
ag5
ag5
aa(lp522
I10
aI7
ag5
ag5
aa(lp523
I10
aI7
ag5
ag5
aa(lp524
I10
aI7
ag5
ag5
aa(lp525
I10
aI7
ag5
ag5
aa(lp526
I10
aI7
ag5
ag5
aa(lp527
I10
aI7
ag5
ag5
aa(lp528
I10
aI7
ag5
ag5
aa(lp529
I10
aI7
ag5
ag5
aa(lp530
I10
aI7
ag5
ag5
aa(lp531
I10
aI7
ag5
ag5
aa(lp532
I10
aI7
ag5
ag5
aa(lp533
I10
aI7
ag5
ag5
aa(lp534
I10
aI7
ag5
ag5
aa(lp535
I10
aI7
ag5
ag5
aa(lp536
I10
aI7
ag5
ag5
aa(lp537
I10
aI7
ag5
ag5
aa(lp538
I10
aI7
ag5
ag5
aa(lp539
I10
aI7
ag5
ag5
aa(lp540
I10
aI7
ag5
ag7
aa(lp541
I10
aI7
ag5
ag4
aa(lp542
I10
aI7
ag5
ag4
aa(lp543
I10
aI7
ag5
ag5
aa(lp544
I10
aI7
ag5
ag5
aa(lp545
I10
aI7
ag5
ag5
aa(lp546
I10
aI7
ag5
ag5
aa(lp547
I10
aI7
ag5
ag5
aa(lp548
I10
aI7
ag5
ag5
aa(lp549
I10
aI7
ag5
ag5
aa(lp550
I10
aI7
ag5
ag5
aa(lp551
I10
aI7
ag5
ag5
aa(lp552
I11
aI1
ag4
ag5
aa(lp553
I11
aI1
ag4
ag4
aa(lp554
I11
aI1
ag4
ag5
aa(lp555
I11
aI1
ag4
ag7
aa(lp556
I11
aI1
ag4
ag4
aa(lp557
I11
aI1
ag4
ag4
aa(lp558
I11
aI1
ag4
ag4
aa(lp559
I11
aI1
ag4
ag4
aa(lp560
I11
aI1
ag4
ag7
aa(lp561
I11
aI1
ag4
ag7
aa(lp562
I11
aI1
ag4
ag7
aa(lp563
I11
aI1
ag4
ag7
aa(lp564
I11
aI1
ag4
ag7
aa(lp565
I11
aI1
ag4
ag5
aa(lp566
I11
aI1
ag4
ag5
aa(lp567
I11
aI1
ag4
ag5
aa(lp568
I11
aI1
ag4
ag5
aa(lp569
I11
aI1
ag4
ag4
aa(lp570
I11
aI1
ag4
ag4
aa(lp571
I11
aI1
ag4
ag4
aa(lp572
I11
aI1
ag4
ag4
aa(lp573
I11
aI1
ag4
ag4
aa(lp574
I11
aI1
ag4
ag5
aa(lp575
I11
aI1
ag4
ag4
aa(lp576
I11
aI1
ag4
ag4
aa(lp577
I11
aI1
ag4
ag4
aa(lp578
I11
aI1
ag4
ag4
aa(lp579
I11
aI1
ag4
ag4
aa(lp580
I11
aI1
ag4
ag7
aa(lp581
I11
aI1
ag4
ag4
aa(lp582
I11
aI1
ag4
ag4
aa(lp583
I11
aI1
ag4
ag4
aa(lp584
I11
aI1
ag4
ag4
aa(lp585
I11
aI1
ag4
ag5
aa(lp586
I11
aI1
ag4
ag5
aa(lp587
I11
aI1
ag4
ag5
aa(lp588
I11
aI1
ag4
ag5
aa(lp589
I11
aI1
ag4
ag5
aa(lp590
I11
aI1
ag4
ag7
aa(lp591
I11
aI1
ag4
ag7
aa(lp592
I11
aI1
ag4
ag5
aa(lp593
I11
aI1
ag4
ag5
aa(lp594
I11
aI1
ag4
ag5
aa(lp595
I11
aI1
ag4
ag5
aa(lp596
I11
aI1
ag4
ag4
aa(lp597
I11
aI1
ag4
ag5
aa(lp598
I11
aI1
ag4
ag4
aa(lp599
I11
aI1
ag4
ag4
aa(lp600
I11
aI1
ag4
ag4
aa(lp601
I11
aI1
ag4
ag4
aa(lp602
I11
aI1
ag4
ag4
aa(lp603
I11
aI1
ag4
ag4
aa(lp604
I11
aI1
ag4
ag4
aa(lp605
I11
aI1
ag4
ag5
aa(lp606
I11
aI1
ag4
ag5
aa(lp607
I11
aI1
ag4
ag5
aa(lp608
I11
aI1
ag4
ag4
aa(lp609
I11
aI1
ag4
ag4
aa(lp610
I11
aI1
ag4
ag4
aa(lp611
I11
aI1
ag4
ag4
aa(lp612
I11
aI1
ag4
ag5
aa(lp613
I11
aI1
ag4
ag4
aa(lp614
I11
aI1
ag4
ag4
aa(lp615
I11
aI1
ag4
ag4
aa(lp616
I11
aI1
ag4
ag4
aa(lp617
I11
aI1
ag4
ag4
aa(lp618
I11
aI1
ag4
ag4
aa(lp619
I11
aI1
ag4
ag4
aa(lp620
I11
aI1
ag4
ag4
aa(lp621
I11
aI1
ag4
ag4
aa(lp622
I12
aI5
ag7
ag7
aa(lp623
I12
aI5
ag7
ag7
aa(lp624
I12
aI5
ag7
ag7
aa(lp625
I12
aI5
ag7
ag7
aa(lp626
I12
aI5
ag7
ag7
aa(lp627
I12
aI5
ag7
ag7
aa(lp628
I12
aI5
ag7
ag7
aa(lp629
I12
aI5
ag7
ag7
aa(lp630
I12
aI5
ag7
ag7
aa(lp631
I12
aI5
ag7
ag5
aa(lp632
I12
aI5
ag7
ag5
aa(lp633
I12
aI5
ag7
ag5
aa(lp634
I12
aI5
ag7
ag4
aa(lp635
I12
aI5
ag7
ag4
aa(lp636
I12
aI5
ag7
ag4
aa(lp637
I12
aI5
ag7
ag7
aa(lp638
I12
aI5
ag7
ag7
aa(lp639
I12
aI5
ag7
ag7
aa(lp640
I12
aI5
ag7
ag7
aa(lp641
I12
aI5
ag7
ag7
aa(lp642
I12
aI5
ag7
ag7
aa(lp643
I12
aI5
ag7
ag7
aa(lp644
I12
aI5
ag7
ag7
aa(lp645
I12
aI5
ag7
ag7
aa(lp646
I12
aI5
ag7
ag7
aa(lp647
I12
aI5
ag7
ag7
aa(lp648
I12
aI5
ag7
ag7
aa(lp649
I12
aI5
ag7
ag7
aa(lp650
I12
aI5
ag7
ag7
aa(lp651
I12
aI5
ag7
ag7
aa(lp652
I12
aI5
ag7
ag7
aa(lp653
I12
aI5
ag7
ag7
aa(lp654
I13
aI2
ag7
ag5
aa(lp655
I13
aI2
ag7
ag7
aa(lp656
I13
aI2
ag7
ag5
aa(lp657
I13
aI2
ag7
ag5
aa(lp658
I13
aI2
ag7
ag7
aa(lp659
I13
aI2
ag7
ag7
aa(lp660
I13
aI2
ag7
ag7
aa(lp661
I13
aI2
ag7
ag7
aa(lp662
I13
aI2
ag7
ag7
aa(lp663
I13
aI2
ag7
ag7
aa(lp664
I13
aI2
ag7
ag7
aa(lp665
I13
aI2
ag7
ag7
aa(lp666
I13
aI2
ag7
ag7
aa(lp667
I13
aI2
ag7
ag7
aa(lp668
I13
aI2
ag7
ag7
aa(lp669
I13
aI2
ag7
ag7
aa(lp670
I13
aI2
ag7
ag7
aa(lp671
I13
aI2
ag7
ag7
aa(lp672
I13
aI2
ag7
ag7
aa(lp673
I13
aI2
ag7
ag7
aa(lp674
I13
aI2
ag7
ag7
aa(lp675
I13
aI2
ag7
ag7
aa(lp676
I13
aI2
ag7
ag7
aa(lp677
I13
aI2
ag7
ag7
aa(lp678
I13
aI2
ag7
ag7
aa(lp679
I13
aI2
ag7
ag7
aa(lp680
I13
aI2
ag7
ag7
aa(lp681
I13
aI2
ag7
ag7
aa(lp682
I13
aI2
ag7
ag7
aa(lp683
I13
aI2
ag7
ag7
aa(lp684
I13
aI2
ag7
ag7
aa(lp685
I13
aI2
ag7
ag7
aa(lp686
I13
aI2
ag7
ag7
aa(lp687
I13
aI2
ag7
ag7
aa(lp688
I13
aI2
ag7
ag7
aa(lp689
I13
aI2
ag7
ag7
aa(lp690
I13
aI2
ag7
ag7
aa(lp691
I14
aI0
ag5
ag7
aa(lp692
I14
aI0
ag5
ag7
aa(lp693
I14
aI0
ag5
ag5
aa(lp694
I14
aI0
ag5
ag5
aa(lp695
I14
aI0
ag5
ag5
aa(lp696
I14
aI0
ag5
ag5
aa(lp697
I14
aI0
ag5
ag5
aa(lp698
I14
aI0
ag5
ag5
aa(lp699
I14
aI0
ag5
ag5
aa(lp700
I14
aI0
ag5
ag5
aa(lp701
I14
aI0
ag5
ag5
aa(lp702
I14
aI0
ag5
ag5
aa(lp703
I14
aI0
ag5
ag5
aa(lp704
I14
aI0
ag5
ag5
aa(lp705
I14
aI0
ag5
ag5
aa(lp706
I14
aI0
ag5
ag5
aa(lp707
I14
aI0
ag5
ag5
aa(lp708
I14
aI0
ag5
ag5
aa(lp709
I14
aI0
ag5
ag5
aa(lp710
I14
aI0
ag5
ag5
aa(lp711
I14
aI0
ag5
ag5
aa(lp712
I14
aI0
ag5
ag5
aa(lp713
I14
aI0
ag5
ag5
aa(lp714
I14
aI0
ag5
ag5
aa(lp715
I14
aI0
ag5
ag5
aa(lp716
I14
aI0
ag5
ag5
aa(lp717
I14
aI0
ag5
ag5
aa(lp718
I14
aI0
ag5
ag5
aa(lp719
I14
aI0
ag5
ag5
aa(lp720
I14
aI0
ag5
ag5
aa(lp721
I14
aI0
ag5
ag5
aa(lp722
I14
aI0
ag5
ag5
aa(lp723
I14
aI0
ag5
ag5
aa(lp724
I14
aI0
ag5
ag5
aa(lp725
I14
aI0
ag5
ag5
aa(lp726
I14
aI0
ag5
ag5
aa(lp727
I14
aI0
ag5
ag5
aa(lp728
I14
aI0
ag5
ag5
aa(lp729
I14
aI0
ag5
ag5
aa(lp730
I14
aI0
ag5
ag5
aa(lp731
I14
aI0
ag5
ag5
aa(lp732
I14
aI0
ag5
ag5
aa(lp733
I14
aI0
ag5
ag5
aa(lp734
I14
aI0
ag5
ag5
aa(lp735
I14
aI0
ag5
ag5
aa(lp736
I14
aI0
ag5
ag5
aa(lp737
I14
aI0
ag5
ag5
aa(lp738
I14
aI0
ag5
ag5
aa(lp739
I14
aI0
ag5
ag5
aa(lp740
I15
aI6
ag4
ag5
aa(lp741
I15
aI6
ag4
ag5
aa(lp742
I15
aI6
ag4
ag5
aa(lp743
I15
aI6
ag4
ag5
aa(lp744
I15
aI6
ag4
ag5
aa(lp745
I15
aI6
ag4
ag5
aa(lp746
I15
aI6
ag4
ag5
aa(lp747
I15
aI6
ag4
ag5
aa(lp748
I15
aI6
ag4
ag7
aa(lp749
I15
aI6
ag4
ag7
aa(lp750
I15
aI6
ag4
ag7
aa(lp751
I15
aI6
ag4
ag7
aa(lp752
I15
aI6
ag4
ag7
aa(lp753
I15
aI6
ag4
ag7
aa(lp754
I15
aI6
ag4
ag4
aa(lp755
I15
aI6
ag4
ag4
aa(lp756
I15
aI6
ag4
ag4
aa(lp757
I15
aI6
ag4
ag4
aa(lp758
I15
aI6
ag4
ag4
aa(lp759
I15
aI6
ag4
ag5
aa(lp760
I15
aI6
ag4
ag5
aa(lp761
I15
aI6
ag4
ag5
aa(lp762
I15
aI6
ag4
ag5
aa(lp763
I15
aI6
ag4
ag4
aa(lp764
I15
aI6
ag4
ag4
aa(lp765
I15
aI6
ag4
ag4
aa(lp766
I15
aI6
ag4
ag4
aa(lp767
I15
aI6
ag4
ag4
aa(lp768
I15
aI6
ag4
ag4
aa(lp769
I15
aI6
ag4
ag4
aa(lp770
I15
aI6
ag4
ag4
aa(lp771
I15
aI6
ag4
ag4
aa(lp772
I15
aI6
ag4
ag4
aa(lp773
I15
aI6
ag4
ag4
aa(lp774
I15
aI6
ag4
ag4
aa(lp775
I15
aI6
ag4
ag4
aa(lp776
I15
aI6
ag4
ag4
aa(lp777
I15
aI6
ag4
ag4
aa(lp778
I15
aI6
ag4
ag4
aa(lp779
I15
aI6
ag4
ag4
aa(lp780
I15
aI6
ag4
ag4
aa(lp781
I15
aI6
ag4
ag4
aa(lp782
I15
aI6
ag4
ag4
aa(lp783
I15
aI6
ag4
ag4
aa(lp784
I15
aI6
ag4
ag4
aa(lp785
I15
aI6
ag4
ag4
aa(lp786
I15
aI6
ag4
ag4
aa(lp787
I15
aI6
ag4
ag4
aa(lp788
I15
aI6
ag4
ag5
aa(lp789
I15
aI6
ag4
ag5
aa(lp790
I15
aI6
ag4
ag5
aa(lp791
I15
aI6
ag4
ag5
aa(lp792
I15
aI6
ag4
ag5
aa(lp793
I15
aI6
ag4
ag4
aa(lp794
I15
aI6
ag4
ag4
aa(lp795
I15
aI6
ag4
ag5
aa(lp796
I15
aI6
ag4
ag5
aa(lp797
I15
aI6
ag4
ag5
aa(lp798
I15
aI6
ag4
ag5
aa(lp799
I15
aI6
ag4
ag5
aa(lp800
I15
aI6
ag4
ag4
aa(lp801
I15
aI6
ag4
ag5
aa(lp802
I15
aI6
ag4
ag5
aa(lp803
I15
aI6
ag4
ag5
aa(lp804
I15
aI6
ag4
ag5
aa(lp805
I15
aI6
ag4
ag5
aa(lp806
I15
aI6
ag4
ag5
aa(lp807
I15
aI6
ag4
ag5
aa(lp808
I15
aI6
ag4
ag5
aa(lp809
I15
aI6
ag4
ag5
aa(lp810
I16
aI2
ag7
ag7
aa(lp811
I16
aI2
ag7
ag7
aa(lp812
I16
aI2
ag7
ag7
aa(lp813
I16
aI2
ag7
ag7
aa(lp814
I16
aI2
ag7
ag7
aa(lp815
I16
aI2
ag7
ag7
aa(lp816
I16
aI2
ag7
ag7
aa(lp817
I16
aI2
ag7
ag7
aa(lp818
I16
aI2
ag7
ag7
aa(lp819
I16
aI2
ag7
ag7
aa(lp820
I16
aI2
ag7
ag7
aa(lp821
I16
aI2
ag7
ag4
aa(lp822
I16
aI2
ag7
ag4
aa(lp823
I16
aI2
ag7
ag4
aa(lp824
I16
aI2
ag7
ag4
aa(lp825
I16
aI2
ag7
ag7
aa(lp826
I16
aI2
ag7
ag7
aa(lp827
I16
aI2
ag7
ag7
aa(lp828
I16
aI2
ag7
ag7
aa(lp829
I16
aI2
ag7
ag7
aa(lp830
I16
aI2
ag7
ag7
aa(lp831
I16
aI2
ag7
ag7
aa(lp832
I16
aI2
ag7
ag7
aa(lp833
I16
aI2
ag7
ag7
aa(lp834
I16
aI2
ag7
ag7
aa(lp835
I16
aI2
ag7
ag7
aa(lp836
I16
aI2
ag7
ag7
aa(lp837
I16
aI2
ag7
ag7
aa(lp838
I16
aI2
ag7
ag7
aa(lp839
I16
aI2
ag7
ag7
aa(lp840
I17
aI8
ag4
ag5
aa(lp841
I17
aI8
ag4
ag5
aa(lp842
I17
aI8
ag4
ag5
aa(lp843
I17
aI8
ag4
ag5
aa(lp844
I17
aI8
ag4
ag5
aa(lp845
I17
aI8
ag4
ag5
aa(lp846
I17
aI8
ag4
ag4
aa(lp847
I17
aI8
ag4
ag4
aa(lp848
I17
aI8
ag4
ag5
aa(lp849
I17
aI8
ag4
ag7
aa(lp850
I17
aI8
ag4
ag7
aa(lp851
I17
aI8
ag4
ag7
aa(lp852
I17
aI8
ag4
ag7
aa(lp853
I17
aI8
ag4
ag7
aa(lp854
I17
aI8
ag4
ag7
aa(lp855
I17
aI8
ag4
ag7
aa(lp856
I17
aI8
ag4
ag7
aa(lp857
I17
aI8
ag4
ag7
aa(lp858
I17
aI8
ag4
ag7
aa(lp859
I17
aI8
ag4
ag4
aa(lp860
I17
aI8
ag4
ag4
aa(lp861
I17
aI8
ag4
ag4
aa(lp862
I17
aI8
ag4
ag4
aa(lp863
I17
aI8
ag4
ag4
aa(lp864
I17
aI8
ag4
ag4
aa(lp865
I17
aI8
ag4
ag5
aa(lp866
I17
aI8
ag4
ag4
aa(lp867
I17
aI8
ag4
ag4
aa(lp868
I17
aI8
ag4
ag4
aa(lp869
I17
aI8
ag4
ag4
aa(lp870
I17
aI8
ag4
ag4
aa(lp871
I17
aI8
ag4
ag4
aa(lp872
I17
aI8
ag4
ag4
aa(lp873
I17
aI8
ag4
ag5
aa(lp874
I17
aI8
ag4
ag5
aa(lp875
I17
aI8
ag4
ag5
aa(lp876
I17
aI8
ag4
ag5
aa(lp877
I17
aI8
ag4
ag5
aa(lp878
I17
aI8
ag4
ag4
aa(lp879
I17
aI8
ag4
ag4
aa(lp880
I17
aI8
ag4
ag4
aa(lp881
I17
aI8
ag4
ag4
aa(lp882
I17
aI8
ag4
ag4
aa(lp883
I17
aI8
ag4
ag4
aa(lp884
I17
aI8
ag4
ag4
aa(lp885
I17
aI8
ag4
ag4
aa(lp886
I17
aI8
ag4
ag4
aa(lp887
I17
aI8
ag4
ag4
aa(lp888
I17
aI8
ag4
ag4
aa(lp889
I17
aI8
ag4
ag4
aa(lp890
I17
aI8
ag4
ag4
aa(lp891
I17
aI8
ag4
ag4
aa(lp892
I17
aI8
ag4
ag4
aa(lp893
I17
aI8
ag4
ag4
aa(lp894
I17
aI8
ag4
ag4
aa(lp895
I17
aI8
ag4
ag4
aa(lp896
I17
aI8
ag4
ag4
aa(lp897
I17
aI8
ag4
ag4
aa(lp898
I17
aI8
ag4
ag4
aa(lp899
I17
aI8
ag4
ag4
aa(lp900
I17
aI8
ag4
ag4
aa(lp901
I17
aI8
ag4
ag4
aa(lp902
I17
aI8
ag4
ag4
aa(lp903
I17
aI8
ag4
ag4
aa(lp904
I17
aI8
ag4
ag4
aa(lp905
I17
aI8
ag4
ag4
aa(lp906
I17
aI8
ag4
ag4
aa(lp907
I17
aI8
ag4
ag4
aa(lp908
I17
aI8
ag4
ag4
aa(lp909
I17
aI8
ag4
ag4
aasS'results'
p910
(lp911
S'correct'
p912
ag912
ag912
ag912
ag912
aS'unfinished'
p913
ag913
aS'incorrect'
p914
ag912
ag912
ag912
ag912
ag912
ag912
ag912
ag912
ag912
ag912
asS'times'
p915
(lp916
F135.0010000000002
aF140.0
aF42.0
aF127.9989999999998
aF67.99699999999939
aF140.0010000000002
aF140.0010000000002
aF4.0
aF71.99799999999959
aF96.0
aF108.0
aF140.0
aF62.0
aF72.0
aF96.0
aF140.0
aF57.998999999999796
aF139.99700000000303
as.