(dp0
S'history'
p1
(lp2
(lp3
I0
aI0
aS'B1'
p4
ag4
aa(lp5
I0
aI0
ag4
ag4
aa(lp6
I0
aI0
ag4
ag4
aa(lp7
I0
aI0
ag4
ag4
aa(lp8
I0
aI0
ag4
ag4
aa(lp9
I0
aI0
ag4
ag4
aa(lp10
I0
aI0
ag4
ag4
aa(lp11
I0
aI0
ag4
ag4
aa(lp12
I0
aI0
ag4
ag4
aa(lp13
I0
aI0
ag4
ag4
aa(lp14
I0
aI0
ag4
ag4
aa(lp15
I0
aI0
ag4
ag4
aa(lp16
I0
aI0
ag4
ag4
aa(lp17
I0
aI0
ag4
ag4
aa(lp18
I0
aI0
ag4
ag4
aa(lp19
I0
aI0
ag4
ag4
aa(lp20
I0
aI0
ag4
ag4
aa(lp21
I0
aI0
ag4
ag4
aa(lp22
I0
aI0
ag4
ag4
aa(lp23
I0
aI0
ag4
ag4
aa(lp24
I0
aI0
ag4
ag4
aa(lp25
I0
aI0
ag4
ag4
aa(lp26
I0
aI0
ag4
ag4
aa(lp27
I0
aI0
ag4
ag4
aa(lp28
I0
aI0
ag4
ag4
aa(lp29
I0
aI0
ag4
ag4
aa(lp30
I0
aI0
ag4
ag4
aa(lp31
I0
aI0
ag4
ag4
aa(lp32
I0
aI0
ag4
ag4
aa(lp33
I0
aI0
ag4
ag4
aa(lp34
I0
aI0
ag4
ag4
aa(lp35
I0
aI0
ag4
ag4
aa(lp36
I0
aI0
ag4
ag4
aa(lp37
I0
aI0
ag4
ag4
aa(lp38
I0
aI0
ag4
ag4
aa(lp39
I0
aI0
ag4
ag4
aa(lp40
I0
aI0
ag4
ag4
aa(lp41
I0
aI0
ag4
ag4
aa(lp42
I0
aI0
ag4
ag4
aa(lp43
I0
aI0
ag4
ag4
aa(lp44
I0
aI0
ag4
ag4
aa(lp45
I0
aI0
ag4
ag4
aa(lp46
I0
aI0
ag4
ag4
aa(lp47
I0
aI0
ag4
ag4
aa(lp48
I0
aI0
ag4
ag4
aa(lp49
I0
aI0
ag4
ag4
aa(lp50
I0
aI0
ag4
ag4
aa(lp51
I0
aI0
ag4
ag4
aa(lp52
I0
aI0
ag4
ag4
aa(lp53
I0
aI0
ag4
ag4
aa(lp54
I0
aI0
ag4
ag4
aa(lp55
I1
aI4
ag4
ag4
aa(lp56
I1
aI4
ag4
ag4
aa(lp57
I1
aI4
ag4
ag4
aa(lp58
I1
aI4
ag4
ag4
aa(lp59
I1
aI4
ag4
ag4
aa(lp60
I1
aI4
ag4
ag4
aa(lp61
I1
aI4
ag4
ag4
aa(lp62
I1
aI4
ag4
ag4
aa(lp63
I1
aI4
ag4
ag4
aa(lp64
I1
aI4
ag4
ag4
aa(lp65
I1
aI4
ag4
ag4
aa(lp66
I1
aI4
ag4
ag4
aa(lp67
I1
aI4
ag4
ag4
aa(lp68
I1
aI4
ag4
ag4
aa(lp69
I1
aI4
ag4
ag4
aa(lp70
I1
aI4
ag4
ag4
aa(lp71
I1
aI4
ag4
ag4
aa(lp72
I1
aI4
ag4
ag4
aa(lp73
I1
aI4
ag4
ag4
aa(lp74
I1
aI4
ag4
ag4
aa(lp75
I1
aI4
ag4
ag4
aa(lp76
I1
aI4
ag4
ag4
aa(lp77
I1
aI4
ag4
ag4
aa(lp78
I1
aI4
ag4
ag4
aa(lp79
I1
aI4
ag4
ag4
aa(lp80
I1
aI4
ag4
ag4
aa(lp81
I1
aI4
ag4
ag4
aa(lp82
I1
aI4
ag4
ag4
aa(lp83
I1
aI4
ag4
ag4
aa(lp84
I1
aI4
ag4
ag4
aa(lp85
I1
aI4
ag4
ag4
aa(lp86
I1
aI4
ag4
ag4
aa(lp87
I1
aI4
ag4
ag4
aa(lp88
I1
aI4
ag4
ag4
aa(lp89
I1
aI4
ag4
ag4
aa(lp90
I1
aI4
ag4
ag4
aa(lp91
I1
aI4
ag4
ag4
aa(lp92
I1
aI4
ag4
ag4
aa(lp93
I1
aI4
ag4
ag4
aa(lp94
I1
aI4
ag4
ag4
aa(lp95
I1
aI4
ag4
ag4
aa(lp96
I1
aI4
ag4
ag4
aa(lp97
I1
aI4
ag4
ag4
aa(lp98
I1
aI4
ag4
ag4
aa(lp99
I1
aI4
ag4
ag4
aa(lp100
I1
aI4
ag4
ag4
aa(lp101
I1
aI4
ag4
ag4
aa(lp102
I1
aI4
ag4
ag4
aa(lp103
I1
aI4
ag4
ag4
aa(lp104
I2
aI4
ag4
ag4
aa(lp105
I2
aI4
ag4
ag4
aa(lp106
I2
aI4
ag4
ag4
aa(lp107
I2
aI4
ag4
ag4
aa(lp108
I2
aI4
ag4
ag4
aa(lp109
I2
aI4
ag4
ag4
aa(lp110
I2
aI4
ag4
ag4
aa(lp111
I2
aI4
ag4
ag4
aa(lp112
I2
aI4
ag4
ag4
aa(lp113
I2
aI4
ag4
ag4
aa(lp114
I2
aI4
ag4
ag4
aa(lp115
I2
aI4
ag4
ag4
aa(lp116
I2
aI4
ag4
ag4
aa(lp117
I2
aI4
ag4
ag4
aa(lp118
I2
aI4
ag4
ag4
aa(lp119
I2
aI4
ag4
ag4
aa(lp120
I2
aI4
ag4
ag4
aa(lp121
I2
aI4
ag4
ag4
aa(lp122
I2
aI4
ag4
ag4
aa(lp123
I2
aI4
ag4
ag4
aa(lp124
I2
aI4
ag4
ag4
aa(lp125
I2
aI4
ag4
ag4
aa(lp126
I2
aI4
ag4
ag4
aa(lp127
I2
aI4
ag4
ag4
aa(lp128
I2
aI4
ag4
ag4
aa(lp129
I2
aI4
ag4
ag4
aa(lp130
I2
aI4
ag4
ag4
aa(lp131
I2
aI4
ag4
ag4
aa(lp132
I2
aI4
ag4
ag4
aa(lp133
I2
aI4
ag4
ag4
aa(lp134
I2
aI4
ag4
ag4
aa(lp135
I2
aI4
ag4
ag4
aa(lp136
I2
aI4
ag4
ag4
aa(lp137
I2
aI4
ag4
ag4
aa(lp138
I2
aI4
ag4
ag4
aa(lp139
I2
aI4
ag4
ag4
aa(lp140
I2
aI4
ag4
ag4
aa(lp141
I2
aI4
ag4
ag4
aa(lp142
I2
aI4
ag4
ag4
aa(lp143
I2
aI4
ag4
ag4
aa(lp144
I2
aI4
ag4
ag4
aa(lp145
I2
aI4
ag4
ag4
aa(lp146
I2
aI4
ag4
ag4
aa(lp147
I2
aI4
ag4
ag4
aa(lp148
I2
aI4
ag4
ag4
aa(lp149
I2
aI4
ag4
ag4
aa(lp150
I2
aI4
ag4
ag4
aa(lp151
I2
aI4
ag4
ag4
aa(lp152
I2
aI4
ag4
ag4
aa(lp153
I3
aI1
aS'B3'
p154
ag154
aa(lp155
I3
aI1
ag154
ag154
aa(lp156
I3
aI1
ag154
ag154
aa(lp157
I3
aI1
ag154
ag154
aa(lp158
I3
aI1
ag154
ag154
aa(lp159
I3
aI1
ag154
ag154
aa(lp160
I3
aI1
ag154
ag154
aa(lp161
I3
aI1
ag154
ag154
aa(lp162
I3
aI1
ag154
ag154
aa(lp163
I3
aI1
ag154
ag154
aa(lp164
I3
aI1
ag154
ag154
aa(lp165
I3
aI1
ag154
ag154
aa(lp166
I3
aI1
ag154
ag154
aa(lp167
I3
aI1
ag154
ag154
aa(lp168
I3
aI1
ag154
ag154
aa(lp169
I3
aI1
ag154
ag154
aa(lp170
I3
aI1
ag154
ag154
aa(lp171
I3
aI1
ag154
ag154
aa(lp172
I3
aI1
ag154
ag154
aa(lp173
I3
aI1
ag154
ag154
aa(lp174
I3
aI1
ag154
ag154
aa(lp175
I3
aI1
ag154
ag154
aa(lp176
I3
aI1
ag154
ag154
aa(lp177
I3
aI1
ag154
ag154
aa(lp178
I3
aI1
ag154
ag154
aa(lp179
I3
aI1
ag154
ag154
aa(lp180
I3
aI1
ag154
ag154
aa(lp181
I3
aI1
ag154
ag154
aa(lp182
I3
aI1
ag154
ag154
aa(lp183
I3
aI1
ag154
ag154
aa(lp184
I3
aI1
ag154
ag154
aa(lp185
I3
aI1
ag154
ag154
aa(lp186
I3
aI1
ag154
ag154
aa(lp187
I3
aI1
ag154
ag154
aa(lp188
I3
aI1
ag154
ag154
aa(lp189
I3
aI1
ag154
ag154
aa(lp190
I3
aI1
ag154
ag154
aa(lp191
I3
aI1
ag154
ag154
aa(lp192
I3
aI1
ag154
ag154
aa(lp193
I3
aI1
ag154
ag154
aa(lp194
I3
aI1
ag154
ag154
aa(lp195
I3
aI1
ag154
ag154
aa(lp196
I3
aI1
ag154
ag154
aa(lp197
I3
aI1
ag154
ag154
aa(lp198
I3
aI1
ag154
ag154
aa(lp199
I3
aI1
ag154
ag154
aa(lp200
I3
aI1
ag154
ag154
aa(lp201
I3
aI1
ag154
ag154
aa(lp202
I3
aI1
ag154
ag154
aa(lp203
I3
aI1
ag154
ag154
aa(lp204
I3
aI1
ag154
ag154
aa(lp205
I3
aI1
ag154
ag154
aa(lp206
I3
aI1
ag154
ag154
aa(lp207
I3
aI1
ag154
ag154
aa(lp208
I3
aI1
ag154
ag154
aa(lp209
I3
aI1
ag154
ag154
aa(lp210
I3
aI1
ag154
ag154
aa(lp211
I3
aI1
ag154
ag154
aa(lp212
I3
aI1
ag154
ag154
aa(lp213
I3
aI1
ag154
ag154
aa(lp214
I3
aI1
ag154
ag154
aa(lp215
I3
aI1
ag154
ag154
aa(lp216
I3
aI1
ag154
ag154
aa(lp217
I3
aI1
ag154
ag154
aa(lp218
I3
aI1
ag154
ag154
aa(lp219
I3
aI1
ag154
ag154
aa(lp220
I3
aI1
ag154
ag154
aa(lp221
I3
aI1
ag154
ag154
aa(lp222
I3
aI1
ag154
ag154
aa(lp223
I3
aI1
ag154
ag154
aa(lp224
I4
aI8
ag154
ag154
aa(lp225
I4
aI8
ag154
ag154
aa(lp226
I4
aI8
ag154
ag154
aa(lp227
I4
aI8
ag154
ag154
aa(lp228
I4
aI8
ag154
ag154
aa(lp229
I4
aI8
ag154
ag154
aa(lp230
I4
aI8
ag154
ag154
aa(lp231
I4
aI8
ag154
ag154
aa(lp232
I4
aI8
ag154
ag154
aa(lp233
I4
aI8
ag154
ag154
aa(lp234
I4
aI8
ag154
ag154
aa(lp235
I4
aI8
ag154
ag154
aa(lp236
I4
aI8
ag154
ag154
aa(lp237
I4
aI8
ag154
ag154
aa(lp238
I4
aI8
ag154
ag154
aa(lp239
I4
aI8
ag154
ag154
aa(lp240
I4
aI8
ag154
ag154
aa(lp241
I4
aI8
ag154
ag154
aa(lp242
I4
aI8
ag154
ag154
aa(lp243
I4
aI8
ag154
ag154
aa(lp244
I4
aI8
ag154
ag154
aa(lp245
I4
aI8
ag154
ag154
aa(lp246
I4
aI8
ag154
ag154
aa(lp247
I4
aI8
ag154
ag154
aa(lp248
I4
aI8
ag154
ag154
aa(lp249
I4
aI8
ag154
ag154
aa(lp250
I4
aI8
ag154
ag154
aa(lp251
I4
aI8
ag154
ag154
aa(lp252
I4
aI8
ag154
ag154
aa(lp253
I4
aI8
ag154
ag154
aa(lp254
I4
aI8
ag154
ag154
aa(lp255
I4
aI8
ag154
ag154
aa(lp256
I4
aI8
ag154
ag154
aa(lp257
I4
aI8
ag154
ag154
aa(lp258
I4
aI8
ag154
ag154
aa(lp259
I4
aI8
ag154
ag154
aa(lp260
I4
aI8
ag154
ag154
aa(lp261
I4
aI8
ag154
ag154
aa(lp262
I4
aI8
ag154
ag154
aa(lp263
I4
aI8
ag154
ag154
aa(lp264
I4
aI8
ag154
ag154
aa(lp265
I4
aI8
ag154
ag154
aa(lp266
I4
aI8
ag154
ag154
aa(lp267
I4
aI8
ag154
ag154
aa(lp268
I4
aI8
ag154
ag154
aa(lp269
I4
aI8
ag154
ag154
aa(lp270
I4
aI8
ag154
ag154
aa(lp271
I4
aI8
ag154
ag154
aa(lp272
I4
aI8
ag154
ag154
aa(lp273
I4
aI8
ag154
ag154
aa(lp274
I4
aI8
ag154
ag154
aa(lp275
I4
aI8
ag154
ag154
aa(lp276
I4
aI8
ag154
ag154
aa(lp277
I4
aI8
ag154
ag154
aa(lp278
I4
aI8
ag154
ag154
aa(lp279
I4
aI8
ag154
ag154
aa(lp280
I4
aI8
ag154
ag154
aa(lp281
I4
aI8
ag154
ag154
aa(lp282
I4
aI8
ag154
ag154
aa(lp283
I4
aI8
ag154
ag154
aa(lp284
I4
aI8
ag154
ag154
aa(lp285
I4
aI8
ag154
ag154
aa(lp286
I4
aI8
ag154
ag154
aa(lp287
I4
aI8
ag154
ag154
aa(lp288
I4
aI8
ag154
ag154
aa(lp289
I4
aI8
ag154
ag154
aa(lp290
I4
aI8
ag154
ag154
aa(lp291
I4
aI8
ag154
ag154
aa(lp292
I4
aI8
ag154
ag154
aa(lp293
I4
aI8
ag154
ag154
aa(lp294
I5
aI6
ag154
ag154
aa(lp295
I5
aI6
ag154
ag154
aa(lp296
I5
aI6
ag154
ag154
aa(lp297
I5
aI6
ag154
ag154
aa(lp298
I5
aI6
ag154
ag154
aa(lp299
I5
aI6
ag154
ag154
aa(lp300
I5
aI6
ag154
ag154
aa(lp301
I5
aI6
ag154
ag154
aa(lp302
I5
aI6
ag154
ag154
aa(lp303
I5
aI6
ag154
ag154
aa(lp304
I5
aI6
ag154
ag154
aa(lp305
I5
aI6
ag154
ag154
aa(lp306
I5
aI6
ag154
ag154
aa(lp307
I5
aI6
ag154
ag154
aa(lp308
I5
aI6
ag154
ag154
aa(lp309
I5
aI6
ag154
ag154
aa(lp310
I5
aI6
ag154
ag154
aa(lp311
I5
aI6
ag154
ag154
aa(lp312
I5
aI6
ag154
ag154
aa(lp313
I5
aI6
ag154
ag154
aa(lp314
I5
aI6
ag154
ag154
aa(lp315
I5
aI6
ag154
ag154
aa(lp316
I5
aI6
ag154
ag154
aa(lp317
I5
aI6
ag154
ag154
aa(lp318
I5
aI6
ag154
ag154
aa(lp319
I5
aI6
ag154
ag154
aa(lp320
I5
aI6
ag154
ag154
aa(lp321
I5
aI6
ag154
ag154
aa(lp322
I5
aI6
ag154
ag154
aa(lp323
I5
aI6
ag154
ag154
aa(lp324
I5
aI6
ag154
ag154
aa(lp325
I5
aI6
ag154
ag154
aa(lp326
I5
aI6
ag154
ag154
aa(lp327
I5
aI6
ag154
ag154
aa(lp328
I5
aI6
ag154
ag154
aa(lp329
I5
aI6
ag154
ag154
aa(lp330
I5
aI6
ag154
ag154
aa(lp331
I5
aI6
ag154
ag154
aa(lp332
I5
aI6
ag154
ag154
aa(lp333
I5
aI6
ag154
ag154
aa(lp334
I5
aI6
ag154
ag154
aa(lp335
I5
aI6
ag154
ag154
aa(lp336
I5
aI6
ag154
ag154
aa(lp337
I5
aI6
ag154
ag154
aa(lp338
I5
aI6
ag154
ag154
aa(lp339
I5
aI6
ag154
ag154
aa(lp340
I5
aI6
ag154
ag154
aa(lp341
I5
aI6
ag154
ag154
aa(lp342
I5
aI6
ag154
ag154
aa(lp343
I5
aI6
ag154
ag154
aa(lp344
I5
aI6
ag154
ag154
aa(lp345
I5
aI6
ag154
ag154
aa(lp346
I5
aI6
ag154
ag154
aa(lp347
I5
aI6
ag154
ag154
aa(lp348
I5
aI6
ag154
ag154
aa(lp349
I5
aI6
ag154
ag154
aa(lp350
I5
aI6
ag154
ag154
aa(lp351
I5
aI6
ag154
ag154
aa(lp352
I5
aI6
ag154
ag154
aa(lp353
I5
aI6
ag154
ag154
aa(lp354
I5
aI6
ag154
ag154
aa(lp355
I5
aI6
ag154
ag154
aa(lp356
I5
aI6
ag154
ag154
aa(lp357
I5
aI6
ag154
ag154
aa(lp358
I5
aI6
ag154
ag154
aa(lp359
I5
aI6
ag154
ag154
aa(lp360
I5
aI6
ag154
ag154
aa(lp361
I5
aI6
ag154
ag154
aa(lp362
I5
aI6
ag154
ag154
aa(lp363
I5
aI6
ag154
ag154
aa(lp364
I6
aI0
ag4
ag4
aa(lp365
I6
aI0
ag4
ag4
aa(lp366
I6
aI0
ag4
ag4
aa(lp367
I6
aI0
ag4
ag4
aa(lp368
I6
aI0
ag4
ag4
aa(lp369
I6
aI0
ag4
ag4
aa(lp370
I6
aI0
ag4
ag4
aa(lp371
I6
aI0
ag4
ag4
aa(lp372
I6
aI0
ag4
ag4
aa(lp373
I6
aI0
ag4
ag4
aa(lp374
I6
aI0
ag4
ag4
aa(lp375
I6
aI0
ag4
ag4
aa(lp376
I6
aI0
ag4
ag4
aa(lp377
I6
aI0
ag4
ag4
aa(lp378
I6
aI0
ag4
ag4
aa(lp379
I6
aI0
ag4
ag4
aa(lp380
I6
aI0
ag4
ag4
aa(lp381
I6
aI0
ag4
ag4
aa(lp382
I6
aI0
ag4
ag4
aa(lp383
I6
aI0
ag4
ag4
aa(lp384
I6
aI0
ag4
ag4
aa(lp385
I6
aI0
ag4
ag4
aa(lp386
I6
aI0
ag4
ag4
aa(lp387
I6
aI0
ag4
ag4
aa(lp388
I6
aI0
ag4
ag4
aa(lp389
I6
aI0
ag4
ag4
aa(lp390
I6
aI0
ag4
ag4
aa(lp391
I6
aI0
ag4
ag4
aa(lp392
I6
aI0
ag4
ag4
aa(lp393
I6
aI0
ag4
ag4
aa(lp394
I6
aI0
ag4
ag4
aa(lp395
I6
aI0
ag4
ag4
aa(lp396
I6
aI0
ag4
ag4
aa(lp397
I6
aI0
ag4
ag4
aa(lp398
I6
aI0
ag4
ag4
aa(lp399
I6
aI0
ag4
ag4
aa(lp400
I6
aI0
ag4
ag4
aa(lp401
I6
aI0
ag4
ag4
aa(lp402
I6
aI0
ag4
ag4
aa(lp403
I6
aI0
ag4
ag4
aa(lp404
I6
aI0
ag4
ag4
aa(lp405
I6
aI0
ag4
ag4
aa(lp406
I6
aI0
ag4
ag4
aa(lp407
I6
aI0
ag4
ag4
aa(lp408
I6
aI0
ag4
ag4
aa(lp409
I6
aI0
ag4
ag4
aa(lp410
I6
aI0
ag4
ag4
aa(lp411
I6
aI0
ag4
ag4
aa(lp412
I6
aI0
ag4
ag4
aa(lp413
I6
aI0
ag4
ag4
aa(lp414
I6
aI0
ag4
ag4
aa(lp415
I6
aI0
ag4
ag4
aa(lp416
I7
aI5
aS'B2'
p417
ag417
aa(lp418
I7
aI5
ag417
ag417
aa(lp419
I7
aI5
ag417
ag417
aa(lp420
I7
aI5
ag417
ag417
aa(lp421
I7
aI5
ag417
ag417
aa(lp422
I7
aI5
ag417
ag417
aa(lp423
I7
aI5
ag417
ag417
aa(lp424
I7
aI5
ag417
ag417
aa(lp425
I7
aI5
ag417
ag417
aa(lp426
I7
aI5
ag417
ag417
aa(lp427
I7
aI5
ag417
ag417
aa(lp428
I7
aI5
ag417
ag417
aa(lp429
I7
aI5
ag417
ag417
aa(lp430
I7
aI5
ag417
ag417
aa(lp431
I7
aI5
ag417
ag417
aa(lp432
I7
aI5
ag417
ag417
aa(lp433
I7
aI5
ag417
ag417
aa(lp434
I7
aI5
ag417
ag417
aa(lp435
I7
aI5
ag417
ag417
aa(lp436
I7
aI5
ag417
ag417
aa(lp437
I7
aI5
ag417
ag417
aa(lp438
I7
aI5
ag417
ag417
aa(lp439
I7
aI5
ag417
ag417
aa(lp440
I7
aI5
ag417
ag417
aa(lp441
I7
aI5
ag417
ag417
aa(lp442
I7
aI5
ag417
ag417
aa(lp443
I7
aI5
ag417
ag417
aa(lp444
I7
aI5
ag417
ag417
aa(lp445
I7
aI5
ag417
ag417
aa(lp446
I7
aI5
ag417
ag417
aa(lp447
I7
aI5
ag417
ag417
aa(lp448
I7
aI5
ag417
ag417
aa(lp449
I7
aI5
ag417
ag417
aa(lp450
I7
aI5
ag417
ag417
aa(lp451
I7
aI5
ag417
ag417
aa(lp452
I7
aI5
ag417
ag417
aa(lp453
I7
aI5
ag417
ag417
aa(lp454
I7
aI5
ag417
ag417
aa(lp455
I7
aI5
ag417
ag417
aa(lp456
I7
aI5
ag417
ag417
aa(lp457
I7
aI5
ag417
ag417
aa(lp458
I8
aI3
ag417
ag417
aa(lp459
I8
aI3
ag417
ag417
aa(lp460
I8
aI3
ag417
ag417
aa(lp461
I8
aI3
ag417
ag417
aa(lp462
I8
aI3
ag417
ag417
aa(lp463
I8
aI3
ag417
ag417
aa(lp464
I8
aI3
ag417
ag417
aa(lp465
I8
aI3
ag417
ag417
aa(lp466
I8
aI3
ag417
ag417
aa(lp467
I8
aI3
ag417
ag417
aa(lp468
I8
aI3
ag417
ag417
aa(lp469
I8
aI3
ag417
ag417
aa(lp470
I8
aI3
ag417
ag417
aa(lp471
I8
aI3
ag417
ag417
aa(lp472
I8
aI3
ag417
ag417
aa(lp473
I8
aI3
ag417
ag417
aa(lp474
I8
aI3
ag417
ag417
aa(lp475
I8
aI3
ag417
ag417
aa(lp476
I8
aI3
ag417
ag417
aa(lp477
I8
aI3
ag417
ag417
aa(lp478
I8
aI3
ag417
ag417
aa(lp479
I8
aI3
ag417
ag417
aa(lp480
I8
aI3
ag417
ag417
aa(lp481
I8
aI3
ag417
ag417
aa(lp482
I8
aI3
ag417
ag417
aa(lp483
I8
aI3
ag417
ag417
aa(lp484
I8
aI3
ag417
ag417
aa(lp485
I8
aI3
ag417
ag417
aa(lp486
I8
aI3
ag417
ag417
aa(lp487
I8
aI3
ag417
ag417
aa(lp488
I8
aI3
ag417
ag417
aa(lp489
I8
aI3
ag417
ag417
aa(lp490
I8
aI3
ag417
ag417
aa(lp491
I8
aI3
ag417
ag417
aa(lp492
I8
aI3
ag417
ag417
aa(lp493
I8
aI3
ag417
ag417
aa(lp494
I8
aI3
ag417
ag417
aa(lp495
I8
aI3
ag417
ag417
aa(lp496
I9
aI6
ag154
ag154
aa(lp497
I9
aI6
ag154
ag154
aa(lp498
I9
aI6
ag154
ag154
aa(lp499
I9
aI6
ag154
ag154
aa(lp500
I9
aI6
ag154
ag154
aa(lp501
I9
aI6
ag154
ag154
aa(lp502
I9
aI6
ag154
ag154
aa(lp503
I9
aI6
ag154
ag154
aa(lp504
I9
aI6
ag154
ag154
aa(lp505
I9
aI6
ag154
ag154
aa(lp506
I9
aI6
ag154
ag154
aa(lp507
I9
aI6
ag154
ag154
aa(lp508
I9
aI6
ag154
ag154
aa(lp509
I9
aI6
ag154
ag154
aa(lp510
I9
aI6
ag154
ag154
aa(lp511
I9
aI6
ag154
ag154
aa(lp512
I9
aI6
ag154
ag154
aa(lp513
I9
aI6
ag154
ag154
aa(lp514
I9
aI6
ag154
ag154
aa(lp515
I9
aI6
ag154
ag154
aa(lp516
I9
aI6
ag154
ag154
aa(lp517
I9
aI6
ag154
ag154
aa(lp518
I9
aI6
ag154
ag154
aa(lp519
I9
aI6
ag154
ag154
aa(lp520
I9
aI6
ag154
ag154
aa(lp521
I9
aI6
ag154
ag154
aa(lp522
I9
aI6
ag154
ag154
aa(lp523
I9
aI6
ag154
ag154
aa(lp524
I9
aI6
ag154
ag154
aa(lp525
I9
aI6
ag154
ag154
aa(lp526
I9
aI6
ag154
ag154
aa(lp527
I9
aI6
ag154
ag154
aa(lp528
I9
aI6
ag154
ag154
aa(lp529
I9
aI6
ag154
ag154
aa(lp530
I9
aI6
ag154
ag154
aa(lp531
I9
aI6
ag154
ag154
aa(lp532
I9
aI6
ag154
ag154
aa(lp533
I9
aI6
ag154
ag154
aa(lp534
I9
aI6
ag154
ag154
aa(lp535
I9
aI6
ag154
ag154
aa(lp536
I9
aI6
ag154
ag154
aa(lp537
I9
aI6
ag154
ag154
aa(lp538
I9
aI6
ag154
ag154
aa(lp539
I9
aI6
ag154
ag154
aa(lp540
I9
aI6
ag154
ag154
aa(lp541
I9
aI6
ag154
ag154
aa(lp542
I9
aI6
ag154
ag154
aa(lp543
I9
aI6
ag154
ag154
aa(lp544
I9
aI6
ag154
ag154
aa(lp545
I9
aI6
ag154
ag154
aa(lp546
I9
aI6
ag154
ag154
aa(lp547
I9
aI6
ag154
ag154
aa(lp548
I9
aI6
ag154
ag154
aa(lp549
I9
aI6
ag154
ag154
aa(lp550
I9
aI6
ag154
ag154
aa(lp551
I9
aI6
ag154
ag154
aa(lp552
I9
aI6
ag154
ag154
aa(lp553
I9
aI6
ag154
ag154
aa(lp554
I9
aI6
ag154
ag154
aa(lp555
I9
aI6
ag154
ag154
aa(lp556
I9
aI6
ag154
ag154
aa(lp557
I9
aI6
ag154
ag154
aa(lp558
I9
aI6
ag154
ag154
aa(lp559
I9
aI6
ag154
ag154
aa(lp560
I9
aI6
ag154
ag154
aa(lp561
I9
aI6
ag154
ag154
aa(lp562
I9
aI6
ag154
ag154
aa(lp563
I9
aI6
ag154
ag154
aa(lp564
I9
aI6
ag154
ag154
aa(lp565
I9
aI6
ag154
ag154
aa(lp566
I10
aI7
ag4
ag4
aa(lp567
I10
aI7
ag4
ag4
aa(lp568
I10
aI7
ag4
ag4
aa(lp569
I10
aI7
ag4
ag4
aa(lp570
I10
aI7
ag4
ag4
aa(lp571
I10
aI7
ag4
ag4
aa(lp572
I10
aI7
ag4
ag4
aa(lp573
I10
aI7
ag4
ag4
aa(lp574
I10
aI7
ag4
ag4
aa(lp575
I10
aI7
ag4
ag4
aa(lp576
I10
aI7
ag4
ag4
aa(lp577
I10
aI7
ag4
ag4
aa(lp578
I10
aI7
ag4
ag4
aa(lp579
I10
aI7
ag4
ag4
aa(lp580
I10
aI7
ag4
ag4
aa(lp581
I10
aI7
ag4
ag4
aa(lp582
I10
aI7
ag4
ag4
aa(lp583
I10
aI7
ag4
ag4
aa(lp584
I10
aI7
ag4
ag4
aa(lp585
I10
aI7
ag4
ag4
aa(lp586
I10
aI7
ag4
ag4
aa(lp587
I10
aI7
ag4
ag4
aa(lp588
I10
aI7
ag4
ag4
aa(lp589
I10
aI7
ag4
ag4
aa(lp590
I10
aI7
ag4
ag4
aa(lp591
I10
aI7
ag4
ag4
aa(lp592
I10
aI7
ag4
ag4
aa(lp593
I10
aI7
ag4
ag4
aa(lp594
I10
aI7
ag4
ag4
aa(lp595
I10
aI7
ag4
ag4
aa(lp596
I10
aI7
ag4
ag4
aa(lp597
I10
aI7
ag4
ag4
aa(lp598
I10
aI7
ag4
ag4
aa(lp599
I10
aI7
ag4
ag4
aa(lp600
I10
aI7
ag4
ag4
aa(lp601
I10
aI7
ag4
ag4
aa(lp602
I10
aI7
ag4
ag4
aa(lp603
I10
aI7
ag4
ag4
aa(lp604
I10
aI7
ag4
ag4
aa(lp605
I10
aI7
ag4
ag4
aa(lp606
I10
aI7
ag4
ag4
aa(lp607
I10
aI7
ag4
ag4
aa(lp608
I10
aI7
ag4
ag4
aa(lp609
I10
aI7
ag4
ag4
aa(lp610
I10
aI7
ag4
ag4
aa(lp611
I10
aI7
ag4
ag4
aa(lp612
I10
aI7
ag4
ag4
aa(lp613
I10
aI7
ag4
ag4
aa(lp614
I10
aI7
ag4
ag4
aa(lp615
I11
aI2
ag417
ag417
aa(lp616
I11
aI2
ag417
ag417
aa(lp617
I11
aI2
ag417
ag417
aa(lp618
I11
aI2
ag417
ag417
aa(lp619
I11
aI2
ag417
ag417
aa(lp620
I11
aI2
ag417
ag417
aa(lp621
I11
aI2
ag417
ag417
aa(lp622
I11
aI2
ag417
ag417
aa(lp623
I11
aI2
ag417
ag417
aa(lp624
I11
aI2
ag417
ag417
aa(lp625
I11
aI2
ag417
ag417
aa(lp626
I11
aI2
ag417
ag417
aa(lp627
I11
aI2
ag417
ag417
aa(lp628
I11
aI2
ag417
ag417
aa(lp629
I11
aI2
ag417
ag417
aa(lp630
I11
aI2
ag417
ag417
aa(lp631
I11
aI2
ag417
ag417
aa(lp632
I11
aI2
ag417
ag417
aa(lp633
I11
aI2
ag417
ag417
aa(lp634
I11
aI2
ag417
ag417
aa(lp635
I11
aI2
ag417
ag417
aa(lp636
I11
aI2
ag417
ag417
aa(lp637
I11
aI2
ag417
ag417
aa(lp638
I11
aI2
ag417
ag417
aa(lp639
I11
aI2
ag417
ag417
aa(lp640
I11
aI2
ag417
ag417
aa(lp641
I11
aI2
ag417
ag417
aa(lp642
I11
aI2
ag417
ag417
aa(lp643
I11
aI2
ag417
ag417
aa(lp644
I11
aI2
ag417
ag417
aa(lp645
I11
aI2
ag417
ag417
aa(lp646
I11
aI2
ag417
ag417
aa(lp647
I11
aI2
ag417
ag417
aa(lp648
I11
aI2
ag417
ag417
aa(lp649
I11
aI2
ag417
ag417
aa(lp650
I11
aI2
ag417
ag417
aa(lp651
I11
aI2
ag417
ag417
aa(lp652
I11
aI2
ag417
ag417
aa(lp653
I12
aI8
ag154
ag154
aa(lp654
I12
aI8
ag154
ag154
aa(lp655
I12
aI8
ag154
ag154
aa(lp656
I12
aI8
ag154
ag154
aa(lp657
I12
aI8
ag154
ag154
aa(lp658
I12
aI8
ag154
ag154
aa(lp659
I12
aI8
ag154
ag154
aa(lp660
I12
aI8
ag154
ag154
aa(lp661
I12
aI8
ag154
ag154
aa(lp662
I12
aI8
ag154
ag154
aa(lp663
I12
aI8
ag154
ag154
aa(lp664
I12
aI8
ag154
ag154
aa(lp665
I12
aI8
ag154
ag154
aa(lp666
I12
aI8
ag154
ag154
aa(lp667
I12
aI8
ag154
ag154
aa(lp668
I12
aI8
ag154
ag154
aa(lp669
I12
aI8
ag154
ag154
aa(lp670
I12
aI8
ag154
ag154
aa(lp671
I12
aI8
ag154
ag154
aa(lp672
I12
aI8
ag154
ag154
aa(lp673
I12
aI8
ag154
ag154
aa(lp674
I12
aI8
ag154
ag154
aa(lp675
I12
aI8
ag154
ag154
aa(lp676
I12
aI8
ag154
ag154
aa(lp677
I12
aI8
ag154
ag154
aa(lp678
I12
aI8
ag154
ag154
aa(lp679
I12
aI8
ag154
ag154
aa(lp680
I12
aI8
ag154
ag154
aa(lp681
I12
aI8
ag154
ag154
aa(lp682
I12
aI8
ag154
ag154
aa(lp683
I12
aI8
ag154
ag154
aa(lp684
I12
aI8
ag154
ag154
aa(lp685
I12
aI8
ag154
ag154
aa(lp686
I12
aI8
ag154
ag154
aa(lp687
I12
aI8
ag154
ag154
aa(lp688
I12
aI8
ag154
ag154
aa(lp689
I12
aI8
ag154
ag154
aa(lp690
I12
aI8
ag154
ag154
aa(lp691
I12
aI8
ag154
ag154
aa(lp692
I12
aI8
ag154
ag154
aa(lp693
I12
aI8
ag154
ag154
aa(lp694
I12
aI8
ag154
ag154
aa(lp695
I12
aI8
ag154
ag154
aa(lp696
I12
aI8
ag154
ag154
aa(lp697
I12
aI8
ag154
ag154
aa(lp698
I12
aI8
ag154
ag154
aa(lp699
I12
aI8
ag154
ag154
aa(lp700
I12
aI8
ag154
ag154
aa(lp701
I12
aI8
ag154
ag154
aa(lp702
I12
aI8
ag154
ag154
aa(lp703
I12
aI8
ag154
ag154
aa(lp704
I12
aI8
ag154
ag154
aa(lp705
I12
aI8
ag154
ag154
aa(lp706
I12
aI8
ag154
ag154
aa(lp707
I12
aI8
ag154
ag154
aa(lp708
I12
aI8
ag154
ag154
aa(lp709
I12
aI8
ag154
ag154
aa(lp710
I12
aI8
ag154
ag154
aa(lp711
I12
aI8
ag154
ag154
aa(lp712
I12
aI8
ag154
ag154
aa(lp713
I12
aI8
ag154
ag154
aa(lp714
I12
aI8
ag154
ag154
aa(lp715
I12
aI8
ag154
ag154
aa(lp716
I12
aI8
ag154
ag154
aa(lp717
I12
aI8
ag154
ag154
aa(lp718
I12
aI8
ag154
ag154
aa(lp719
I12
aI8
ag154
ag154
aa(lp720
I12
aI8
ag154
ag154
aa(lp721
I12
aI8
ag154
ag154
aa(lp722
I12
aI8
ag154
ag154
aa(lp723
I13
aI1
ag154
ag154
aa(lp724
I13
aI1
ag154
ag154
aa(lp725
I13
aI1
ag154
ag154
aa(lp726
I13
aI1
ag154
ag154
aa(lp727
I13
aI1
ag154
ag154
aa(lp728
I13
aI1
ag154
ag154
aa(lp729
I13
aI1
ag154
ag154
aa(lp730
I13
aI1
ag154
ag154
aa(lp731
I13
aI1
ag154
ag154
aa(lp732
I13
aI1
ag154
ag154
aa(lp733
I13
aI1
ag154
ag154
aa(lp734
I13
aI1
ag154
ag154
aa(lp735
I13
aI1
ag154
ag154
aa(lp736
I13
aI1
ag154
ag154
aa(lp737
I13
aI1
ag154
ag154
aa(lp738
I13
aI1
ag154
ag154
aa(lp739
I13
aI1
ag154
ag154
aa(lp740
I13
aI1
ag154
ag154
aa(lp741
I13
aI1
ag154
ag154
aa(lp742
I13
aI1
ag154
ag154
aa(lp743
I13
aI1
ag154
ag154
aa(lp744
I13
aI1
ag154
ag154
aa(lp745
I13
aI1
ag154
ag154
aa(lp746
I13
aI1
ag154
ag154
aa(lp747
I13
aI1
ag154
ag154
aa(lp748
I13
aI1
ag154
ag154
aa(lp749
I13
aI1
ag154
ag154
aa(lp750
I13
aI1
ag154
ag154
aa(lp751
I13
aI1
ag154
ag154
aa(lp752
I13
aI1
ag154
ag154
aa(lp753
I13
aI1
ag154
ag154
aa(lp754
I13
aI1
ag154
ag154
aa(lp755
I13
aI1
ag154
ag154
aa(lp756
I13
aI1
ag154
ag154
aa(lp757
I13
aI1
ag154
ag154
aa(lp758
I13
aI1
ag154
ag154
aa(lp759
I13
aI1
ag154
ag154
aa(lp760
I13
aI1
ag154
ag154
aa(lp761
I13
aI1
ag154
ag154
aa(lp762
I13
aI1
ag154
ag154
aa(lp763
I13
aI1
ag154
ag154
aa(lp764
I13
aI1
ag154
ag154
aa(lp765
I13
aI1
ag154
ag154
aa(lp766
I13
aI1
ag154
ag154
aa(lp767
I13
aI1
ag154
ag154
aa(lp768
I13
aI1
ag154
ag154
aa(lp769
I13
aI1
ag154
ag154
aa(lp770
I13
aI1
ag154
ag154
aa(lp771
I13
aI1
ag154
ag154
aa(lp772
I13
aI1
ag154
ag154
aa(lp773
I13
aI1
ag154
ag154
aa(lp774
I13
aI1
ag154
ag154
aa(lp775
I13
aI1
ag154
ag154
aa(lp776
I13
aI1
ag154
ag154
aa(lp777
I13
aI1
ag154
ag154
aa(lp778
I13
aI1
ag154
ag154
aa(lp779
I13
aI1
ag154
ag154
aa(lp780
I13
aI1
ag154
ag154
aa(lp781
I13
aI1
ag154
ag154
aa(lp782
I13
aI1
ag154
ag154
aa(lp783
I13
aI1
ag154
ag154
aa(lp784
I13
aI1
ag154
ag154
aa(lp785
I13
aI1
ag154
ag154
aa(lp786
I13
aI1
ag154
ag154
aa(lp787
I13
aI1
ag154
ag154
aa(lp788
I13
aI1
ag154
ag154
aa(lp789
I13
aI1
ag154
ag154
aa(lp790
I13
aI1
ag154
ag154
aa(lp791
I13
aI1
ag154
ag154
aa(lp792
I13
aI1
ag154
ag154
aa(lp793
I14
aI5
ag417
ag417
aa(lp794
I14
aI5
ag417
ag417
aa(lp795
I14
aI5
ag417
ag417
aa(lp796
I14
aI5
ag417
ag417
aa(lp797
I14
aI5
ag417
ag417
aa(lp798
I14
aI5
ag417
ag417
aa(lp799
I14
aI5
ag417
ag417
aa(lp800
I14
aI5
ag417
ag417
aa(lp801
I14
aI5
ag417
ag417
aa(lp802
I14
aI5
ag417
ag417
aa(lp803
I14
aI5
ag417
ag417
aa(lp804
I14
aI5
ag417
ag417
aa(lp805
I14
aI5
ag417
ag417
aa(lp806
I14
aI5
ag417
ag417
aa(lp807
I14
aI5
ag417
ag417
aa(lp808
I14
aI5
ag417
ag417
aa(lp809
I14
aI5
ag417
ag417
aa(lp810
I14
aI5
ag417
ag417
aa(lp811
I14
aI5
ag417
ag417
aa(lp812
I14
aI5
ag417
ag417
aa(lp813
I14
aI5
ag417
ag417
aa(lp814
I14
aI5
ag417
ag417
aa(lp815
I14
aI5
ag417
ag417
aa(lp816
I14
aI5
ag417
ag417
aa(lp817
I14
aI5
ag417
ag417
aa(lp818
I14
aI5
ag417
ag417
aa(lp819
I14
aI5
ag417
ag417
aa(lp820
I14
aI5
ag417
ag417
aa(lp821
I14
aI5
ag417
ag417
aa(lp822
I14
aI5
ag417
ag417
aa(lp823
I14
aI5
ag417
ag417
aa(lp824
I14
aI5
ag417
ag417
aa(lp825
I14
aI5
ag417
ag417
aa(lp826
I14
aI5
ag417
ag417
aa(lp827
I14
aI5
ag417
ag417
aa(lp828
I14
aI5
ag417
ag417
aa(lp829
I14
aI5
ag417
ag417
aa(lp830
I14
aI5
ag417
ag417
aa(lp831
I15
aI3
ag417
ag417
aa(lp832
I15
aI3
ag417
ag417
aa(lp833
I15
aI3
ag417
ag417
aa(lp834
I15
aI3
ag417
ag417
aa(lp835
I15
aI3
ag417
ag417
aa(lp836
I15
aI3
ag417
ag417
aa(lp837
I15
aI3
ag417
ag417
aa(lp838
I15
aI3
ag417
ag417
aa(lp839
I15
aI3
ag417
ag417
aa(lp840
I15
aI3
ag417
ag417
aa(lp841
I15
aI3
ag417
ag417
aa(lp842
I15
aI3
ag417
ag417
aa(lp843
I15
aI3
ag417
ag417
aa(lp844
I15
aI3
ag417
ag417
aa(lp845
I15
aI3
ag417
ag417
aa(lp846
I15
aI3
ag417
ag417
aa(lp847
I15
aI3
ag417
ag417
aa(lp848
I15
aI3
ag417
ag417
aa(lp849
I15
aI3
ag417
ag417
aa(lp850
I15
aI3
ag417
ag417
aa(lp851
I15
aI3
ag417
ag417
aa(lp852
I15
aI3
ag417
ag417
aa(lp853
I15
aI3
ag417
ag417
aa(lp854
I15
aI3
ag417
ag417
aa(lp855
I15
aI3
ag417
ag417
aa(lp856
I15
aI3
ag417
ag417
aa(lp857
I15
aI3
ag417
ag417
aa(lp858
I15
aI3
ag417
ag417
aa(lp859
I15
aI3
ag417
ag417
aa(lp860
I15
aI3
ag417
ag417
aa(lp861
I15
aI3
ag417
ag417
aa(lp862
I15
aI3
ag417
ag417
aa(lp863
I15
aI3
ag417
ag417
aa(lp864
I15
aI3
ag417
ag417
aa(lp865
I15
aI3
ag417
ag417
aa(lp866
I15
aI3
ag417
ag417
aa(lp867
I15
aI3
ag417
ag417
aa(lp868
I15
aI3
ag417
ag417
aa(lp869
I16
aI2
ag417
ag417
aa(lp870
I16
aI2
ag417
ag417
aa(lp871
I16
aI2
ag417
ag417
aa(lp872
I16
aI2
ag417
ag417
aa(lp873
I16
aI2
ag417
ag417
aa(lp874
I16
aI2
ag417
ag417
aa(lp875
I16
aI2
ag417
ag417
aa(lp876
I16
aI2
ag417
ag417
aa(lp877
I16
aI2
ag417
ag417
aa(lp878
I16
aI2
ag417
ag417
aa(lp879
I16
aI2
ag417
ag417
aa(lp880
I16
aI2
ag417
ag417
aa(lp881
I16
aI2
ag417
ag417
aa(lp882
I16
aI2
ag417
ag417
aa(lp883
I16
aI2
ag417
ag417
aa(lp884
I16
aI2
ag417
ag417
aa(lp885
I16
aI2
ag417
ag417
aa(lp886
I16
aI2
ag417
ag417
aa(lp887
I16
aI2
ag417
ag417
aa(lp888
I16
aI2
ag417
ag417
aa(lp889
I16
aI2
ag417
ag417
aa(lp890
I16
aI2
ag417
ag417
aa(lp891
I16
aI2
ag417
ag417
aa(lp892
I16
aI2
ag417
ag417
aa(lp893
I16
aI2
ag417
ag417
aa(lp894
I16
aI2
ag417
ag417
aa(lp895
I16
aI2
ag417
ag417
aa(lp896
I16
aI2
ag417
ag417
aa(lp897
I16
aI2
ag417
ag417
aa(lp898
I16
aI2
ag417
ag417
aa(lp899
I16
aI2
ag417
ag417
aa(lp900
I17
aI7
ag4
ag4
aa(lp901
I17
aI7
ag4
ag4
aa(lp902
I17
aI7
ag4
ag4
aa(lp903
I17
aI7
ag4
ag4
aa(lp904
I17
aI7
ag4
ag4
aa(lp905
I17
aI7
ag4
ag4
aa(lp906
I17
aI7
ag4
ag4
aa(lp907
I17
aI7
ag4
ag4
aa(lp908
I17
aI7
ag4
ag4
aa(lp909
I17
aI7
ag4
ag4
aa(lp910
I17
aI7
ag4
ag4
aa(lp911
I17
aI7
ag4
ag4
aa(lp912
I17
aI7
ag4
ag4
aa(lp913
I17
aI7
ag4
ag4
aa(lp914
I17
aI7
ag4
ag4
aa(lp915
I17
aI7
ag4
ag4
aa(lp916
I17
aI7
ag4
ag4
aa(lp917
I17
aI7
ag4
ag4
aa(lp918
I17
aI7
ag4
ag4
aa(lp919
I17
aI7
ag4
ag4
aa(lp920
I17
aI7
ag4
ag4
aa(lp921
I17
aI7
ag4
ag4
aa(lp922
I17
aI7
ag4
ag4
aa(lp923
I17
aI7
ag4
ag4
aa(lp924
I17
aI7
ag4
ag4
aa(lp925
I17
aI7
ag4
ag4
aa(lp926
I17
aI7
ag4
ag4
aa(lp927
I17
aI7
ag4
ag4
aa(lp928
I17
aI7
ag4
ag4
aa(lp929
I17
aI7
ag4
ag4
aa(lp930
I17
aI7
ag4
ag4
aa(lp931
I17
aI7
ag4
ag4
aa(lp932
I17
aI7
ag4
ag4
aa(lp933
I17
aI7
ag4
ag4
aa(lp934
I17
aI7
ag4
ag4
aa(lp935
I17
aI7
ag4
ag4
aa(lp936
I17
aI7
ag4
ag4
aa(lp937
I17
aI7
ag4
ag4
aa(lp938
I17
aI7
ag4
ag4
aa(lp939
I17
aI7
ag4
ag4
aa(lp940
I17
aI7
ag4
ag4
aa(lp941
I17
aI7
ag4
ag4
aa(lp942
I17
aI7
ag4
ag4
aa(lp943
I17
aI7
ag4
ag4
aa(lp944
I17
aI7
ag4
ag4
aa(lp945
I17
aI7
ag4
ag4
aa(lp946
I17
aI7
ag4
ag4
aa(lp947
I17
aI7
ag4
ag4
aa(lp948
I17
aI7
ag4
ag4
aa(lp949
I17
aI7
ag4
ag4
aasS'results'
p950
(lp951
S'correct'
p952
ag952
ag952
ag952
ag952
ag952
ag952
ag952
ag952
ag952
ag952
ag952
ag952
ag952
ag952
ag952
ag952
ag952
asS'times'
p953
(lp954
F95.0010000000002
aF96.0
aF95.9989999999998
aF140.0010000000002
aF140.0
aF140.0010000000002
aF101.99799999999959
aF79.99699999999939
aF74.0010000000002
aF139.9989999999998
aF96.0
aF73.9989999999998
aF139.9989999999998
aF139.9989999999998
aF74.00200000000041
aF74.0010000000002
aF60.001000000000204
aF97.9989999999998
as.