(dp0
S'history'
p1
(lp2
(lp3
I0
aI8
aS'B3'
p4
ag4
aa(lp5
I0
aI8
ag4
ag4
aa(lp6
I0
aI8
ag4
ag4
aa(lp7
I0
aI8
ag4
ag4
aa(lp8
I0
aI8
ag4
ag4
aa(lp9
I0
aI8
ag4
ag4
aa(lp10
I0
aI8
ag4
ag4
aa(lp11
I0
aI8
ag4
ag4
aa(lp12
I0
aI8
ag4
ag4
aa(lp13
I0
aI8
ag4
ag4
aa(lp14
I0
aI8
ag4
ag4
aa(lp15
I0
aI8
ag4
ag4
aa(lp16
I0
aI8
ag4
ag4
aa(lp17
I0
aI8
ag4
ag4
aa(lp18
I0
aI8
ag4
ag4
aa(lp19
I0
aI8
ag4
ag4
aa(lp20
I0
aI8
ag4
ag4
aa(lp21
I0
aI8
ag4
ag4
aa(lp22
I0
aI8
ag4
ag4
aa(lp23
I0
aI8
ag4
ag4
aa(lp24
I0
aI8
ag4
ag4
aa(lp25
I0
aI8
ag4
ag4
aa(lp26
I0
aI8
ag4
ag4
aa(lp27
I0
aI8
ag4
ag4
aa(lp28
I0
aI8
ag4
ag4
aa(lp29
I0
aI8
ag4
ag4
aa(lp30
I0
aI8
ag4
ag4
aa(lp31
I0
aI8
ag4
ag4
aa(lp32
I0
aI8
ag4
ag4
aa(lp33
I0
aI8
ag4
ag4
aa(lp34
I0
aI8
ag4
ag4
aa(lp35
I0
aI8
ag4
ag4
aa(lp36
I0
aI8
ag4
ag4
aa(lp37
I0
aI8
ag4
ag4
aa(lp38
I0
aI8
ag4
ag4
aa(lp39
I0
aI8
ag4
ag4
aa(lp40
I0
aI8
ag4
ag4
aa(lp41
I0
aI8
ag4
ag4
aa(lp42
I0
aI8
ag4
ag4
aa(lp43
I0
aI8
ag4
ag4
aa(lp44
I0
aI8
ag4
ag4
aa(lp45
I0
aI8
ag4
ag4
aa(lp46
I0
aI8
ag4
ag4
aa(lp47
I0
aI8
ag4
ag4
aa(lp48
I0
aI8
ag4
ag4
aa(lp49
I0
aI8
ag4
ag4
aa(lp50
I0
aI8
ag4
ag4
aa(lp51
I0
aI8
ag4
ag4
aa(lp52
I0
aI8
ag4
ag4
aa(lp53
I0
aI8
ag4
ag4
aa(lp54
I0
aI8
ag4
ag4
aa(lp55
I0
aI8
ag4
ag4
aa(lp56
I0
aI8
ag4
ag4
aa(lp57
I0
aI8
ag4
ag4
aa(lp58
I0
aI8
ag4
ag4
aa(lp59
I0
aI8
ag4
ag4
aa(lp60
I0
aI8
ag4
ag4
aa(lp61
I0
aI8
ag4
ag4
aa(lp62
I0
aI8
ag4
ag4
aa(lp63
I0
aI8
ag4
ag4
aa(lp64
I0
aI8
ag4
ag4
aa(lp65
I0
aI8
ag4
ag4
aa(lp66
I0
aI8
ag4
ag4
aa(lp67
I0
aI8
ag4
ag4
aa(lp68
I0
aI8
ag4
ag4
aa(lp69
I0
aI8
ag4
ag4
aa(lp70
I0
aI8
ag4
ag4
aa(lp71
I0
aI8
ag4
ag4
aa(lp72
I0
aI8
ag4
ag4
aa(lp73
I0
aI8
ag4
ag4
aa(lp74
I1
aI7
aS'B1'
p75
ag75
aa(lp76
I1
aI7
ag75
ag75
aa(lp77
I1
aI7
ag75
ag75
aa(lp78
I1
aI7
ag75
ag75
aa(lp79
I1
aI7
ag75
ag75
aa(lp80
I1
aI7
ag75
ag75
aa(lp81
I1
aI7
ag75
ag75
aa(lp82
I1
aI7
ag75
ag75
aa(lp83
I1
aI7
ag75
ag75
aa(lp84
I1
aI7
ag75
ag75
aa(lp85
I1
aI7
ag75
ag75
aa(lp86
I1
aI7
ag75
ag75
aa(lp87
I1
aI7
ag75
ag75
aa(lp88
I1
aI7
ag75
ag75
aa(lp89
I1
aI7
ag75
ag75
aa(lp90
I1
aI7
ag75
ag75
aa(lp91
I1
aI7
ag75
ag75
aa(lp92
I1
aI7
ag75
ag75
aa(lp93
I1
aI7
ag75
ag75
aa(lp94
I1
aI7
ag75
ag75
aa(lp95
I1
aI7
ag75
ag75
aa(lp96
I1
aI7
ag75
ag75
aa(lp97
I1
aI7
ag75
ag75
aa(lp98
I1
aI7
ag75
ag75
aa(lp99
I1
aI7
ag75
ag75
aa(lp100
I1
aI7
ag75
ag75
aa(lp101
I1
aI7
ag75
ag75
aa(lp102
I1
aI7
ag75
ag75
aa(lp103
I1
aI7
ag75
ag75
aa(lp104
I1
aI7
ag75
ag75
aa(lp105
I1
aI7
ag75
ag75
aa(lp106
I1
aI7
ag75
ag75
aa(lp107
I1
aI7
ag75
ag75
aa(lp108
I1
aI7
ag75
ag75
aa(lp109
I1
aI7
ag75
ag75
aa(lp110
I1
aI7
ag75
ag75
aa(lp111
I1
aI7
ag75
ag75
aa(lp112
I1
aI7
ag75
ag75
aa(lp113
I1
aI7
ag75
ag75
aa(lp114
I2
aI8
ag4
ag4
aa(lp115
I2
aI8
ag4
ag4
aa(lp116
I2
aI8
ag4
ag4
aa(lp117
I2
aI8
ag4
ag4
aa(lp118
I2
aI8
ag4
ag4
aa(lp119
I2
aI8
ag4
ag4
aa(lp120
I2
aI8
ag4
ag4
aa(lp121
I2
aI8
ag4
ag4
aa(lp122
I2
aI8
ag4
ag4
aa(lp123
I2
aI8
ag4
ag4
aa(lp124
I2
aI8
ag4
ag4
aa(lp125
I2
aI8
ag4
ag4
aa(lp126
I2
aI8
ag4
ag4
aa(lp127
I2
aI8
ag4
ag4
aa(lp128
I2
aI8
ag4
ag4
aa(lp129
I2
aI8
ag4
ag4
aa(lp130
I2
aI8
ag4
ag4
aa(lp131
I2
aI8
ag4
ag4
aa(lp132
I2
aI8
ag4
ag4
aa(lp133
I2
aI8
ag4
ag4
aa(lp134
I2
aI8
ag4
ag4
aa(lp135
I2
aI8
ag4
ag4
aa(lp136
I2
aI8
ag4
ag4
aa(lp137
I2
aI8
ag4
ag4
aa(lp138
I2
aI8
ag4
ag4
aa(lp139
I2
aI8
ag4
ag4
aa(lp140
I2
aI8
ag4
ag4
aa(lp141
I2
aI8
ag4
ag4
aa(lp142
I2
aI8
ag4
ag4
aa(lp143
I2
aI8
ag4
ag4
aa(lp144
I2
aI8
ag4
ag4
aa(lp145
I2
aI8
ag4
ag4
aa(lp146
I2
aI8
ag4
ag4
aa(lp147
I2
aI8
ag4
ag4
aa(lp148
I2
aI8
ag4
ag4
aa(lp149
I2
aI8
ag4
ag4
aa(lp150
I2
aI8
ag4
ag4
aa(lp151
I2
aI8
ag4
ag4
aa(lp152
I2
aI8
ag4
ag4
aa(lp153
I2
aI8
ag4
ag4
aa(lp154
I2
aI8
ag4
ag4
aa(lp155
I2
aI8
ag4
ag4
aa(lp156
I2
aI8
ag4
ag4
aa(lp157
I2
aI8
ag4
ag4
aa(lp158
I2
aI8
ag4
ag4
aa(lp159
I2
aI8
ag4
ag4
aa(lp160
I2
aI8
ag4
ag4
aa(lp161
I2
aI8
ag4
ag4
aa(lp162
I2
aI8
ag4
ag4
aa(lp163
I2
aI8
ag4
ag4
aa(lp164
I2
aI8
ag4
ag4
aa(lp165
I2
aI8
ag4
ag4
aa(lp166
I2
aI8
ag4
ag4
aa(lp167
I2
aI8
ag4
ag4
aa(lp168
I2
aI8
ag4
ag4
aa(lp169
I2
aI8
ag4
ag4
aa(lp170
I2
aI8
ag4
ag4
aa(lp171
I2
aI8
ag4
ag4
aa(lp172
I2
aI8
ag4
ag4
aa(lp173
I2
aI8
ag4
ag4
aa(lp174
I2
aI8
ag4
ag4
aa(lp175
I2
aI8
ag4
ag4
aa(lp176
I2
aI8
ag4
ag4
aa(lp177
I2
aI8
ag4
ag4
aa(lp178
I2
aI8
ag4
ag4
aa(lp179
I2
aI8
ag4
ag4
aa(lp180
I2
aI8
ag4
ag4
aa(lp181
I2
aI8
ag4
ag4
aa(lp182
I2
aI8
ag4
ag4
aa(lp183
I2
aI8
ag4
ag4
aa(lp184
I3
aI6
ag4
ag4
aa(lp185
I3
aI6
ag4
ag4
aa(lp186
I3
aI6
ag4
ag4
aa(lp187
I3
aI6
ag4
ag4
aa(lp188
I3
aI6
ag4
ag4
aa(lp189
I3
aI6
ag4
ag4
aa(lp190
I3
aI6
ag4
ag4
aa(lp191
I3
aI6
ag4
ag4
aa(lp192
I3
aI6
ag4
ag4
aa(lp193
I3
aI6
ag4
ag4
aa(lp194
I3
aI6
ag4
ag4
aa(lp195
I3
aI6
ag4
ag4
aa(lp196
I3
aI6
ag4
ag4
aa(lp197
I3
aI6
ag4
ag4
aa(lp198
I3
aI6
ag4
ag4
aa(lp199
I3
aI6
ag4
ag4
aa(lp200
I3
aI6
ag4
ag4
aa(lp201
I3
aI6
ag4
ag4
aa(lp202
I3
aI6
ag4
ag4
aa(lp203
I3
aI6
ag4
ag4
aa(lp204
I3
aI6
ag4
ag4
aa(lp205
I3
aI6
ag4
ag4
aa(lp206
I3
aI6
ag4
ag4
aa(lp207
I3
aI6
ag4
ag4
aa(lp208
I3
aI6
ag4
ag4
aa(lp209
I3
aI6
ag4
ag4
aa(lp210
I3
aI6
ag4
ag4
aa(lp211
I3
aI6
ag4
ag4
aa(lp212
I3
aI6
ag4
ag4
aa(lp213
I3
aI6
ag4
ag4
aa(lp214
I3
aI6
ag4
ag4
aa(lp215
I3
aI6
ag4
ag4
aa(lp216
I3
aI6
ag4
ag4
aa(lp217
I3
aI6
ag4
ag4
aa(lp218
I3
aI6
ag4
ag4
aa(lp219
I3
aI6
ag4
ag4
aa(lp220
I3
aI6
ag4
ag4
aa(lp221
I3
aI6
ag4
ag4
aa(lp222
I3
aI6
ag4
ag4
aa(lp223
I3
aI6
ag4
ag4
aa(lp224
I3
aI6
ag4
ag4
aa(lp225
I3
aI6
ag4
ag4
aa(lp226
I3
aI6
ag4
ag4
aa(lp227
I3
aI6
ag4
ag4
aa(lp228
I3
aI6
ag4
ag4
aa(lp229
I3
aI6
ag4
ag4
aa(lp230
I3
aI6
ag4
ag4
aa(lp231
I3
aI6
ag4
ag4
aa(lp232
I3
aI6
ag4
ag4
aa(lp233
I3
aI6
ag4
ag4
aa(lp234
I3
aI6
ag4
ag4
aa(lp235
I3
aI6
ag4
ag4
aa(lp236
I3
aI6
ag4
ag4
aa(lp237
I3
aI6
ag4
ag4
aa(lp238
I3
aI6
ag4
ag4
aa(lp239
I3
aI6
ag4
ag4
aa(lp240
I3
aI6
ag4
ag4
aa(lp241
I3
aI6
ag4
ag4
aa(lp242
I3
aI6
ag4
ag4
aa(lp243
I3
aI6
ag4
ag4
aa(lp244
I3
aI6
ag4
ag4
aa(lp245
I3
aI6
ag4
ag4
aa(lp246
I3
aI6
ag4
ag4
aa(lp247
I3
aI6
ag4
ag4
aa(lp248
I3
aI6
ag4
ag4
aa(lp249
I3
aI6
ag4
ag4
aa(lp250
I3
aI6
ag4
ag4
aa(lp251
I3
aI6
ag4
ag4
aa(lp252
I3
aI6
ag4
ag4
aa(lp253
I3
aI6
ag4
ag4
aa(lp254
I4
aI4
ag75
ag75
aa(lp255
I4
aI4
ag75
ag75
aa(lp256
I4
aI4
ag75
ag75
aa(lp257
I4
aI4
ag75
ag75
aa(lp258
I4
aI4
ag75
ag75
aa(lp259
I4
aI4
ag75
ag75
aa(lp260
I4
aI4
ag75
ag75
aa(lp261
I4
aI4
ag75
ag75
aa(lp262
I4
aI4
ag75
ag75
aa(lp263
I4
aI4
ag75
ag75
aa(lp264
I4
aI4
ag75
ag75
aa(lp265
I4
aI4
ag75
ag75
aa(lp266
I4
aI4
ag75
ag75
aa(lp267
I4
aI4
ag75
ag75
aa(lp268
I4
aI4
ag75
ag75
aa(lp269
I4
aI4
ag75
ag75
aa(lp270
I4
aI4
ag75
ag75
aa(lp271
I4
aI4
ag75
ag75
aa(lp272
I4
aI4
ag75
ag75
aa(lp273
I4
aI4
ag75
ag75
aa(lp274
I4
aI4
ag75
ag75
aa(lp275
I4
aI4
ag75
ag75
aa(lp276
I4
aI4
ag75
ag75
aa(lp277
I4
aI4
ag75
ag75
aa(lp278
I4
aI4
ag75
ag75
aa(lp279
I4
aI4
ag75
ag75
aa(lp280
I4
aI4
ag75
ag75
aa(lp281
I4
aI4
ag75
ag75
aa(lp282
I4
aI4
ag75
ag75
aa(lp283
I4
aI4
ag75
ag75
aa(lp284
I4
aI4
ag75
ag75
aa(lp285
I4
aI4
ag75
ag75
aa(lp286
I4
aI4
ag75
ag75
aa(lp287
I4
aI4
ag75
ag75
aa(lp288
I4
aI4
ag75
ag75
aa(lp289
I4
aI4
ag75
ag75
aa(lp290
I4
aI4
ag75
ag75
aa(lp291
I4
aI4
ag75
ag75
aa(lp292
I4
aI4
ag75
ag75
aa(lp293
I4
aI4
ag75
ag75
aa(lp294
I4
aI4
ag75
ag75
aa(lp295
I4
aI4
ag75
ag75
aa(lp296
I4
aI4
ag75
ag75
aa(lp297
I4
aI4
ag75
ag75
aa(lp298
I4
aI4
ag75
ag75
aa(lp299
I4
aI4
ag75
ag75
aa(lp300
I4
aI4
ag75
ag75
aa(lp301
I4
aI4
ag75
ag75
aa(lp302
I4
aI4
ag75
ag75
aa(lp303
I5
aI1
ag4
ag4
aa(lp304
I5
aI1
ag4
ag4
aa(lp305
I5
aI1
ag4
ag4
aa(lp306
I5
aI1
ag4
ag4
aa(lp307
I5
aI1
ag4
ag4
aa(lp308
I5
aI1
ag4
ag4
aa(lp309
I5
aI1
ag4
ag4
aa(lp310
I5
aI1
ag4
ag4
aa(lp311
I5
aI1
ag4
ag4
aa(lp312
I5
aI1
ag4
ag4
aa(lp313
I5
aI1
ag4
ag4
aa(lp314
I5
aI1
ag4
ag4
aa(lp315
I5
aI1
ag4
ag4
aa(lp316
I5
aI1
ag4
ag4
aa(lp317
I5
aI1
ag4
ag4
aa(lp318
I5
aI1
ag4
ag4
aa(lp319
I5
aI1
ag4
ag4
aa(lp320
I5
aI1
ag4
ag4
aa(lp321
I5
aI1
ag4
ag4
aa(lp322
I5
aI1
ag4
ag4
aa(lp323
I5
aI1
ag4
ag4
aa(lp324
I5
aI1
ag4
ag4
aa(lp325
I5
aI1
ag4
ag4
aa(lp326
I5
aI1
ag4
ag4
aa(lp327
I5
aI1
ag4
ag4
aa(lp328
I5
aI1
ag4
ag4
aa(lp329
I5
aI1
ag4
ag4
aa(lp330
I5
aI1
ag4
ag4
aa(lp331
I5
aI1
ag4
ag4
aa(lp332
I5
aI1
ag4
ag4
aa(lp333
I5
aI1
ag4
ag4
aa(lp334
I5
aI1
ag4
ag4
aa(lp335
I5
aI1
ag4
ag4
aa(lp336
I5
aI1
ag4
ag4
aa(lp337
I5
aI1
ag4
ag4
aa(lp338
I5
aI1
ag4
ag4
aa(lp339
I5
aI1
ag4
ag4
aa(lp340
I5
aI1
ag4
ag4
aa(lp341
I5
aI1
ag4
ag4
aa(lp342
I5
aI1
ag4
ag4
aa(lp343
I5
aI1
ag4
ag4
aa(lp344
I5
aI1
ag4
ag4
aa(lp345
I5
aI1
ag4
ag4
aa(lp346
I5
aI1
ag4
ag4
aa(lp347
I5
aI1
ag4
ag4
aa(lp348
I5
aI1
ag4
ag4
aa(lp349
I5
aI1
ag4
ag4
aa(lp350
I5
aI1
ag4
ag4
aa(lp351
I5
aI1
ag4
ag4
aa(lp352
I5
aI1
ag4
ag4
aa(lp353
I5
aI1
ag4
ag4
aa(lp354
I5
aI1
ag4
ag4
aa(lp355
I5
aI1
ag4
ag4
aa(lp356
I5
aI1
ag4
ag4
aa(lp357
I5
aI1
ag4
ag4
aa(lp358
I5
aI1
ag4
ag4
aa(lp359
I5
aI1
ag4
ag4
aa(lp360
I5
aI1
ag4
ag4
aa(lp361
I5
aI1
ag4
ag4
aa(lp362
I5
aI1
ag4
ag4
aa(lp363
I5
aI1
ag4
ag4
aa(lp364
I5
aI1
ag4
ag4
aa(lp365
I5
aI1
ag4
ag4
aa(lp366
I5
aI1
ag4
ag4
aa(lp367
I5
aI1
ag4
ag4
aa(lp368
I5
aI1
ag4
ag4
aa(lp369
I5
aI1
ag4
ag4
aa(lp370
I5
aI1
ag4
ag4
aa(lp371
I5
aI1
ag4
ag4
aa(lp372
I5
aI1
ag4
ag4
aa(lp373
I6
aI4
ag75
ag75
aa(lp374
I6
aI4
ag75
ag75
aa(lp375
I6
aI4
ag75
ag75
aa(lp376
I6
aI4
ag75
ag75
aa(lp377
I6
aI4
ag75
ag75
aa(lp378
I6
aI4
ag75
ag75
aa(lp379
I6
aI4
ag75
ag75
aa(lp380
I6
aI4
ag75
ag75
aa(lp381
I6
aI4
ag75
ag75
aa(lp382
I6
aI4
ag75
ag75
aa(lp383
I6
aI4
ag75
ag75
aa(lp384
I6
aI4
ag75
ag75
aa(lp385
I6
aI4
ag75
ag75
aa(lp386
I6
aI4
ag75
ag75
aa(lp387
I6
aI4
ag75
ag75
aa(lp388
I6
aI4
ag75
ag75
aa(lp389
I6
aI4
ag75
ag75
aa(lp390
I6
aI4
ag75
ag75
aa(lp391
I6
aI4
ag75
ag75
aa(lp392
I6
aI4
ag75
ag75
aa(lp393
I6
aI4
ag75
ag75
aa(lp394
I6
aI4
ag75
ag75
aa(lp395
I6
aI4
ag75
ag75
aa(lp396
I6
aI4
ag75
ag75
aa(lp397
I6
aI4
ag75
ag75
aa(lp398
I6
aI4
ag75
ag75
aa(lp399
I6
aI4
ag75
ag75
aa(lp400
I6
aI4
ag75
ag75
aa(lp401
I6
aI4
ag75
ag75
aa(lp402
I6
aI4
ag75
ag75
aa(lp403
I6
aI4
ag75
ag75
aa(lp404
I6
aI4
ag75
ag75
aa(lp405
I6
aI4
ag75
ag75
aa(lp406
I6
aI4
ag75
ag75
aa(lp407
I6
aI4
ag75
ag75
aa(lp408
I6
aI4
ag75
ag75
aa(lp409
I6
aI4
ag75
ag75
aa(lp410
I6
aI4
ag75
ag75
aa(lp411
I6
aI4
ag75
ag75
aa(lp412
I6
aI4
ag75
ag75
aa(lp413
I6
aI4
ag75
ag75
aa(lp414
I6
aI4
ag75
ag75
aa(lp415
I6
aI4
ag75
ag75
aa(lp416
I6
aI4
ag75
ag75
aa(lp417
I6
aI4
ag75
ag75
aa(lp418
I6
aI4
ag75
ag75
aa(lp419
I6
aI4
ag75
ag75
aa(lp420
I6
aI4
ag75
ag75
aa(lp421
I7
aI3
aS'B2'
p422
ag422
aa(lp423
I7
aI3
ag422
ag422
aa(lp424
I7
aI3
ag422
ag422
aa(lp425
I7
aI3
ag422
ag422
aa(lp426
I7
aI3
ag422
ag422
aa(lp427
I7
aI3
ag422
ag422
aa(lp428
I7
aI3
ag422
ag422
aa(lp429
I7
aI3
ag422
ag422
aa(lp430
I7
aI3
ag422
ag422
aa(lp431
I7
aI3
ag422
ag422
aa(lp432
I7
aI3
ag422
ag422
aa(lp433
I7
aI3
ag422
ag422
aa(lp434
I7
aI3
ag422
ag422
aa(lp435
I7
aI3
ag422
ag422
aa(lp436
I7
aI3
ag422
ag422
aa(lp437
I7
aI3
ag422
ag422
aa(lp438
I7
aI3
ag422
ag422
aa(lp439
I7
aI3
ag422
ag422
aa(lp440
I7
aI3
ag422
ag422
aa(lp441
I7
aI3
ag422
ag422
aa(lp442
I7
aI3
ag422
ag422
aa(lp443
I7
aI3
ag422
ag422
aa(lp444
I7
aI3
ag422
ag422
aa(lp445
I7
aI3
ag422
ag422
aa(lp446
I7
aI3
ag422
ag422
aa(lp447
I7
aI3
ag422
ag422
aa(lp448
I7
aI3
ag422
ag422
aa(lp449
I7
aI3
ag422
ag422
aa(lp450
I7
aI3
ag422
ag422
aa(lp451
I7
aI3
ag422
ag422
aa(lp452
I7
aI3
ag422
ag422
aa(lp453
I7
aI3
ag422
ag422
aa(lp454
I7
aI3
ag422
ag422
aa(lp455
I7
aI3
ag422
ag422
aa(lp456
I7
aI3
ag422
ag422
aa(lp457
I7
aI3
ag422
ag422
aa(lp458
I7
aI3
ag422
ag422
aa(lp459
I8
aI6
ag4
ag4
aa(lp460
I8
aI6
ag4
ag4
aa(lp461
I8
aI6
ag4
ag4
aa(lp462
I8
aI6
ag4
ag4
aa(lp463
I8
aI6
ag4
ag4
aa(lp464
I8
aI6
ag4
ag4
aa(lp465
I8
aI6
ag4
ag4
aa(lp466
I8
aI6
ag4
ag4
aa(lp467
I8
aI6
ag4
ag4
aa(lp468
I8
aI6
ag4
ag4
aa(lp469
I8
aI6
ag4
ag4
aa(lp470
I8
aI6
ag4
ag4
aa(lp471
I8
aI6
ag4
ag4
aa(lp472
I8
aI6
ag4
ag4
aa(lp473
I8
aI6
ag4
ag4
aa(lp474
I8
aI6
ag4
ag4
aa(lp475
I8
aI6
ag4
ag4
aa(lp476
I8
aI6
ag4
ag4
aa(lp477
I8
aI6
ag4
ag4
aa(lp478
I8
aI6
ag4
ag4
aa(lp479
I8
aI6
ag4
ag4
aa(lp480
I8
aI6
ag4
ag4
aa(lp481
I8
aI6
ag4
ag4
aa(lp482
I8
aI6
ag4
ag4
aa(lp483
I8
aI6
ag4
ag4
aa(lp484
I8
aI6
ag4
ag4
aa(lp485
I8
aI6
ag4
ag4
aa(lp486
I8
aI6
ag4
ag4
aa(lp487
I8
aI6
ag4
ag4
aa(lp488
I8
aI6
ag4
ag4
aa(lp489
I8
aI6
ag4
ag4
aa(lp490
I8
aI6
ag4
ag4
aa(lp491
I8
aI6
ag4
ag4
aa(lp492
I8
aI6
ag4
ag4
aa(lp493
I8
aI6
ag4
ag4
aa(lp494
I8
aI6
ag4
ag4
aa(lp495
I8
aI6
ag4
ag4
aa(lp496
I8
aI6
ag4
ag4
aa(lp497
I8
aI6
ag4
ag4
aa(lp498
I8
aI6
ag4
ag4
aa(lp499
I8
aI6
ag4
ag4
aa(lp500
I8
aI6
ag4
ag4
aa(lp501
I8
aI6
ag4
ag4
aa(lp502
I8
aI6
ag4
ag4
aa(lp503
I8
aI6
ag4
ag4
aa(lp504
I8
aI6
ag4
ag4
aa(lp505
I8
aI6
ag4
ag4
aa(lp506
I8
aI6
ag4
ag4
aa(lp507
I8
aI6
ag4
ag4
aa(lp508
I8
aI6
ag4
ag4
aa(lp509
I8
aI6
ag4
ag4
aa(lp510
I8
aI6
ag4
ag4
aa(lp511
I8
aI6
ag4
ag4
aa(lp512
I8
aI6
ag4
ag4
aa(lp513
I8
aI6
ag4
ag4
aa(lp514
I8
aI6
ag4
ag4
aa(lp515
I8
aI6
ag4
ag4
aa(lp516
I8
aI6
ag4
ag4
aa(lp517
I8
aI6
ag4
ag4
aa(lp518
I8
aI6
ag4
ag4
aa(lp519
I8
aI6
ag4
ag4
aa(lp520
I8
aI6
ag4
ag4
aa(lp521
I8
aI6
ag4
ag4
aa(lp522
I8
aI6
ag4
ag4
aa(lp523
I8
aI6
ag4
ag4
aa(lp524
I8
aI6
ag4
ag4
aa(lp525
I8
aI6
ag4
ag4
aa(lp526
I8
aI6
ag4
ag4
aa(lp527
I8
aI6
ag4
ag4
aa(lp528
I8
aI6
ag4
ag4
aa(lp529
I9
aI5
ag422
ag422
aa(lp530
I9
aI5
ag422
ag422
aa(lp531
I9
aI5
ag422
ag422
aa(lp532
I9
aI5
ag422
ag422
aa(lp533
I9
aI5
ag422
ag422
aa(lp534
I9
aI5
ag422
ag422
aa(lp535
I9
aI5
ag422
ag422
aa(lp536
I9
aI5
ag422
ag422
aa(lp537
I9
aI5
ag422
ag422
aa(lp538
I9
aI5
ag422
ag422
aa(lp539
I9
aI5
ag422
ag422
aa(lp540
I9
aI5
ag422
ag422
aa(lp541
I9
aI5
ag422
ag422
aa(lp542
I9
aI5
ag422
ag422
aa(lp543
I9
aI5
ag422
ag422
aa(lp544
I9
aI5
ag422
ag422
aa(lp545
I9
aI5
ag422
ag422
aa(lp546
I9
aI5
ag422
ag422
aa(lp547
I9
aI5
ag422
ag422
aa(lp548
I9
aI5
ag422
ag422
aa(lp549
I9
aI5
ag422
ag422
aa(lp550
I9
aI5
ag422
ag422
aa(lp551
I9
aI5
ag422
ag422
aa(lp552
I9
aI5
ag422
ag422
aa(lp553
I9
aI5
ag422
ag422
aa(lp554
I9
aI5
ag422
ag422
aa(lp555
I9
aI5
ag422
ag422
aa(lp556
I9
aI5
ag422
ag422
aa(lp557
I9
aI5
ag422
ag422
aa(lp558
I9
aI5
ag422
ag422
aa(lp559
I9
aI5
ag422
ag422
aa(lp560
I9
aI5
ag422
ag422
aa(lp561
I9
aI5
ag422
ag422
aa(lp562
I9
aI5
ag422
ag422
aa(lp563
I9
aI5
ag422
ag422
aa(lp564
I9
aI5
ag422
ag422
aa(lp565
I9
aI5
ag422
ag422
aa(lp566
I9
aI5
ag422
ag422
aa(lp567
I10
aI1
ag4
ag4
aa(lp568
I10
aI1
ag4
ag4
aa(lp569
I10
aI1
ag4
ag4
aa(lp570
I10
aI1
ag4
ag4
aa(lp571
I10
aI1
ag4
ag4
aa(lp572
I10
aI1
ag4
ag4
aa(lp573
I10
aI1
ag4
ag4
aa(lp574
I10
aI1
ag4
ag4
aa(lp575
I10
aI1
ag4
ag4
aa(lp576
I10
aI1
ag4
ag4
aa(lp577
I10
aI1
ag4
ag4
aa(lp578
I10
aI1
ag4
ag4
aa(lp579
I10
aI1
ag4
ag4
aa(lp580
I10
aI1
ag4
ag4
aa(lp581
I10
aI1
ag4
ag4
aa(lp582
I10
aI1
ag4
ag4
aa(lp583
I10
aI1
ag4
ag4
aa(lp584
I10
aI1
ag4
ag4
aa(lp585
I10
aI1
ag4
ag4
aa(lp586
I10
aI1
ag4
ag4
aa(lp587
I10
aI1
ag4
ag4
aa(lp588
I10
aI1
ag4
ag4
aa(lp589
I10
aI1
ag4
ag4
aa(lp590
I10
aI1
ag4
ag4
aa(lp591
I10
aI1
ag4
ag4
aa(lp592
I10
aI1
ag4
ag4
aa(lp593
I10
aI1
ag4
ag4
aa(lp594
I10
aI1
ag4
ag4
aa(lp595
I10
aI1
ag4
ag4
aa(lp596
I10
aI1
ag4
ag4
aa(lp597
I10
aI1
ag4
ag4
aa(lp598
I10
aI1
ag4
ag4
aa(lp599
I10
aI1
ag4
ag4
aa(lp600
I10
aI1
ag4
ag4
aa(lp601
I10
aI1
ag4
ag4
aa(lp602
I10
aI1
ag4
ag4
aa(lp603
I10
aI1
ag4
ag4
aa(lp604
I10
aI1
ag4
ag4
aa(lp605
I10
aI1
ag4
ag4
aa(lp606
I10
aI1
ag4
ag4
aa(lp607
I10
aI1
ag4
ag4
aa(lp608
I10
aI1
ag4
ag4
aa(lp609
I10
aI1
ag4
ag4
aa(lp610
I10
aI1
ag4
ag4
aa(lp611
I10
aI1
ag4
ag4
aa(lp612
I10
aI1
ag4
ag4
aa(lp613
I10
aI1
ag4
ag4
aa(lp614
I10
aI1
ag4
ag4
aa(lp615
I10
aI1
ag4
ag4
aa(lp616
I10
aI1
ag4
ag4
aa(lp617
I10
aI1
ag4
ag4
aa(lp618
I10
aI1
ag4
ag4
aa(lp619
I10
aI1
ag4
ag4
aa(lp620
I10
aI1
ag4
ag4
aa(lp621
I10
aI1
ag4
ag4
aa(lp622
I10
aI1
ag4
ag4
aa(lp623
I10
aI1
ag4
ag4
aa(lp624
I10
aI1
ag4
ag4
aa(lp625
I10
aI1
ag4
ag4
aa(lp626
I10
aI1
ag4
ag4
aa(lp627
I10
aI1
ag4
ag4
aa(lp628
I10
aI1
ag4
ag4
aa(lp629
I10
aI1
ag4
ag4
aa(lp630
I10
aI1
ag4
ag4
aa(lp631
I10
aI1
ag4
ag4
aa(lp632
I10
aI1
ag4
ag4
aa(lp633
I10
aI1
ag4
ag4
aa(lp634
I10
aI1
ag4
ag4
aa(lp635
I10
aI1
ag4
ag4
aa(lp636
I10
aI1
ag4
ag4
aa(lp637
I11
aI0
ag75
ag75
aa(lp638
I11
aI0
ag75
ag75
aa(lp639
I11
aI0
ag75
ag75
aa(lp640
I11
aI0
ag75
ag75
aa(lp641
I11
aI0
ag75
ag75
aa(lp642
I11
aI0
ag75
ag75
aa(lp643
I11
aI0
ag75
ag75
aa(lp644
I11
aI0
ag75
ag75
aa(lp645
I11
aI0
ag75
ag75
aa(lp646
I11
aI0
ag75
ag75
aa(lp647
I11
aI0
ag75
ag75
aa(lp648
I11
aI0
ag75
ag75
aa(lp649
I11
aI0
ag75
ag75
aa(lp650
I11
aI0
ag75
ag75
aa(lp651
I11
aI0
ag75
ag75
aa(lp652
I11
aI0
ag75
ag75
aa(lp653
I11
aI0
ag75
ag75
aa(lp654
I11
aI0
ag75
ag75
aa(lp655
I11
aI0
ag75
ag75
aa(lp656
I11
aI0
ag75
ag75
aa(lp657
I11
aI0
ag75
ag75
aa(lp658
I11
aI0
ag75
ag75
aa(lp659
I11
aI0
ag75
ag75
aa(lp660
I11
aI0
ag75
ag75
aa(lp661
I11
aI0
ag75
ag75
aa(lp662
I11
aI0
ag75
ag75
aa(lp663
I11
aI0
ag75
ag75
aa(lp664
I11
aI0
ag75
ag75
aa(lp665
I11
aI0
ag75
ag75
aa(lp666
I11
aI0
ag75
ag75
aa(lp667
I11
aI0
ag75
ag75
aa(lp668
I11
aI0
ag75
ag75
aa(lp669
I11
aI0
ag75
ag75
aa(lp670
I11
aI0
ag75
ag75
aa(lp671
I11
aI0
ag75
ag75
aa(lp672
I11
aI0
ag75
ag75
aa(lp673
I11
aI0
ag75
ag75
aa(lp674
I11
aI0
ag75
ag75
aa(lp675
I11
aI0
ag75
ag75
aa(lp676
I11
aI0
ag75
ag75
aa(lp677
I11
aI0
ag75
ag75
aa(lp678
I11
aI0
ag75
ag75
aa(lp679
I11
aI0
ag75
ag75
aa(lp680
I11
aI0
ag75
ag75
aa(lp681
I11
aI0
ag75
ag75
aa(lp682
I11
aI0
ag75
ag75
aa(lp683
I11
aI0
ag75
ag75
aa(lp684
I11
aI0
ag75
ag75
aa(lp685
I11
aI0
ag75
ag75
aa(lp686
I12
aI7
ag75
ag75
aa(lp687
I12
aI7
ag75
ag75
aa(lp688
I12
aI7
ag75
ag75
aa(lp689
I12
aI7
ag75
ag75
aa(lp690
I12
aI7
ag75
ag75
aa(lp691
I12
aI7
ag75
ag75
aa(lp692
I12
aI7
ag75
ag75
aa(lp693
I12
aI7
ag75
ag75
aa(lp694
I12
aI7
ag75
ag75
aa(lp695
I12
aI7
ag75
ag75
aa(lp696
I12
aI7
ag75
ag75
aa(lp697
I12
aI7
ag75
ag75
aa(lp698
I12
aI7
ag75
ag75
aa(lp699
I12
aI7
ag75
ag75
aa(lp700
I12
aI7
ag75
ag75
aa(lp701
I12
aI7
ag75
ag75
aa(lp702
I12
aI7
ag75
ag75
aa(lp703
I12
aI7
ag75
ag75
aa(lp704
I12
aI7
ag75
ag75
aa(lp705
I12
aI7
ag75
ag75
aa(lp706
I12
aI7
ag75
ag75
aa(lp707
I12
aI7
ag75
ag75
aa(lp708
I12
aI7
ag75
ag75
aa(lp709
I12
aI7
ag75
ag75
aa(lp710
I12
aI7
ag75
ag75
aa(lp711
I12
aI7
ag75
ag75
aa(lp712
I12
aI7
ag75
ag75
aa(lp713
I12
aI7
ag75
ag75
aa(lp714
I12
aI7
ag75
ag75
aa(lp715
I12
aI7
ag75
ag75
aa(lp716
I12
aI7
ag75
ag75
aa(lp717
I12
aI7
ag75
ag75
aa(lp718
I12
aI7
ag75
ag75
aa(lp719
I12
aI7
ag75
ag75
aa(lp720
I12
aI7
ag75
ag75
aa(lp721
I12
aI7
ag75
ag75
aa(lp722
I12
aI7
ag75
ag75
aa(lp723
I12
aI7
ag75
ag75
aa(lp724
I12
aI7
ag75
ag75
aa(lp725
I12
aI7
ag75
ag75
aa(lp726
I12
aI7
ag75
ag75
aa(lp727
I12
aI7
ag75
ag75
aa(lp728
I12
aI7
ag75
ag75
aa(lp729
I12
aI7
ag75
ag75
aa(lp730
I12
aI7
ag75
ag75
aa(lp731
I12
aI7
ag75
ag75
aa(lp732
I12
aI7
ag75
ag75
aa(lp733
I12
aI7
ag75
ag75
aa(lp734
I12
aI7
ag75
ag75
aa(lp735
I13
aI2
ag422
ag422
aa(lp736
I13
aI2
ag422
ag422
aa(lp737
I13
aI2
ag422
ag422
aa(lp738
I13
aI2
ag422
ag422
aa(lp739
I13
aI2
ag422
ag422
aa(lp740
I13
aI2
ag422
ag422
aa(lp741
I13
aI2
ag422
ag422
aa(lp742
I13
aI2
ag422
ag422
aa(lp743
I13
aI2
ag422
ag422
aa(lp744
I13
aI2
ag422
ag422
aa(lp745
I13
aI2
ag422
ag422
aa(lp746
I13
aI2
ag422
ag422
aa(lp747
I13
aI2
ag422
ag422
aa(lp748
I13
aI2
ag422
ag422
aa(lp749
I13
aI2
ag422
ag422
aa(lp750
I13
aI2
ag422
ag422
aa(lp751
I13
aI2
ag422
ag422
aa(lp752
I13
aI2
ag422
ag422
aa(lp753
I13
aI2
ag422
ag422
aa(lp754
I13
aI2
ag422
ag422
aa(lp755
I13
aI2
ag422
ag422
aa(lp756
I13
aI2
ag422
ag422
aa(lp757
I13
aI2
ag422
ag422
aa(lp758
I13
aI2
ag422
ag422
aa(lp759
I13
aI2
ag422
ag422
aa(lp760
I13
aI2
ag422
ag422
aa(lp761
I13
aI2
ag422
ag422
aa(lp762
I13
aI2
ag422
ag422
aa(lp763
I13
aI2
ag422
ag422
aa(lp764
I13
aI2
ag422
ag422
aa(lp765
I13
aI2
ag422
ag422
aa(lp766
I13
aI2
ag422
ag422
aa(lp767
I13
aI2
ag422
ag422
aa(lp768
I13
aI2
ag422
ag422
aa(lp769
I13
aI2
ag422
ag422
aa(lp770
I13
aI2
ag422
ag422
aa(lp771
I14
aI3
ag422
ag422
aa(lp772
I14
aI3
ag422
ag422
aa(lp773
I14
aI3
ag422
ag422
aa(lp774
I14
aI3
ag422
ag422
aa(lp775
I14
aI3
ag422
ag422
aa(lp776
I14
aI3
ag422
ag422
aa(lp777
I14
aI3
ag422
ag422
aa(lp778
I14
aI3
ag422
ag422
aa(lp779
I14
aI3
ag422
ag422
aa(lp780
I14
aI3
ag422
ag422
aa(lp781
I14
aI3
ag422
ag422
aa(lp782
I14
aI3
ag422
ag422
aa(lp783
I14
aI3
ag422
ag422
aa(lp784
I14
aI3
ag422
ag422
aa(lp785
I14
aI3
ag422
ag422
aa(lp786
I14
aI3
ag422
ag422
aa(lp787
I14
aI3
ag422
ag422
aa(lp788
I14
aI3
ag422
ag422
aa(lp789
I14
aI3
ag422
ag422
aa(lp790
I14
aI3
ag422
ag422
aa(lp791
I14
aI3
ag422
ag422
aa(lp792
I14
aI3
ag422
ag422
aa(lp793
I14
aI3
ag422
ag422
aa(lp794
I14
aI3
ag422
ag422
aa(lp795
I14
aI3
ag422
ag422
aa(lp796
I14
aI3
ag422
ag422
aa(lp797
I14
aI3
ag422
ag422
aa(lp798
I14
aI3
ag422
ag422
aa(lp799
I14
aI3
ag422
ag422
aa(lp800
I14
aI3
ag422
ag422
aa(lp801
I14
aI3
ag422
ag422
aa(lp802
I14
aI3
ag422
ag422
aa(lp803
I14
aI3
ag422
ag422
aa(lp804
I14
aI3
ag422
ag422
aa(lp805
I14
aI3
ag422
ag422
aa(lp806
I14
aI3
ag422
ag422
aa(lp807
I15
aI5
ag422
ag422
aa(lp808
I15
aI5
ag422
ag422
aa(lp809
I15
aI5
ag422
ag422
aa(lp810
I15
aI5
ag422
ag422
aa(lp811
I15
aI5
ag422
ag422
aa(lp812
I15
aI5
ag422
ag422
aa(lp813
I15
aI5
ag422
ag422
aa(lp814
I15
aI5
ag422
ag422
aa(lp815
I15
aI5
ag422
ag422
aa(lp816
I15
aI5
ag422
ag422
aa(lp817
I15
aI5
ag422
ag422
aa(lp818
I15
aI5
ag422
ag422
aa(lp819
I15
aI5
ag422
ag422
aa(lp820
I15
aI5
ag422
ag422
aa(lp821
I15
aI5
ag422
ag422
aa(lp822
I15
aI5
ag422
ag422
aa(lp823
I15
aI5
ag422
ag422
aa(lp824
I15
aI5
ag422
ag422
aa(lp825
I15
aI5
ag422
ag422
aa(lp826
I15
aI5
ag422
ag422
aa(lp827
I15
aI5
ag422
ag422
aa(lp828
I15
aI5
ag422
ag422
aa(lp829
I15
aI5
ag422
ag422
aa(lp830
I15
aI5
ag422
ag422
aa(lp831
I15
aI5
ag422
ag422
aa(lp832
I15
aI5
ag422
ag422
aa(lp833
I15
aI5
ag422
ag422
aa(lp834
I15
aI5
ag422
ag422
aa(lp835
I15
aI5
ag422
ag422
aa(lp836
I15
aI5
ag422
ag422
aa(lp837
I15
aI5
ag422
ag422
aa(lp838
I15
aI5
ag422
ag422
aa(lp839
I16
aI0
ag75
ag75
aa(lp840
I16
aI0
ag75
ag75
aa(lp841
I16
aI0
ag75
ag75
aa(lp842
I16
aI0
ag75
ag75
aa(lp843
I16
aI0
ag75
ag75
aa(lp844
I16
aI0
ag75
ag75
aa(lp845
I16
aI0
ag75
ag75
aa(lp846
I16
aI0
ag75
ag75
aa(lp847
I16
aI0
ag75
ag75
aa(lp848
I16
aI0
ag75
ag75
aa(lp849
I16
aI0
ag75
ag75
aa(lp850
I16
aI0
ag75
ag75
aa(lp851
I16
aI0
ag75
ag75
aa(lp852
I16
aI0
ag75
ag75
aa(lp853
I16
aI0
ag75
ag75
aa(lp854
I16
aI0
ag75
ag75
aa(lp855
I16
aI0
ag75
ag75
aa(lp856
I16
aI0
ag75
ag75
aa(lp857
I16
aI0
ag75
ag75
aa(lp858
I16
aI0
ag75
ag75
aa(lp859
I16
aI0
ag75
ag75
aa(lp860
I16
aI0
ag75
ag75
aa(lp861
I16
aI0
ag75
ag75
aa(lp862
I16
aI0
ag75
ag75
aa(lp863
I16
aI0
ag75
ag75
aa(lp864
I16
aI0
ag75
ag75
aa(lp865
I16
aI0
ag75
ag75
aa(lp866
I16
aI0
ag75
ag75
aa(lp867
I16
aI0
ag75
ag75
aa(lp868
I16
aI0
ag75
ag75
aa(lp869
I16
aI0
ag75
ag75
aa(lp870
I16
aI0
ag75
ag75
aa(lp871
I16
aI0
ag75
ag75
aa(lp872
I16
aI0
ag75
ag75
aa(lp873
I16
aI0
ag75
ag75
aa(lp874
I16
aI0
ag75
ag75
aa(lp875
I16
aI0
ag75
ag75
aa(lp876
I16
aI0
ag75
ag75
aa(lp877
I16
aI0
ag75
ag75
aa(lp878
I16
aI0
ag75
ag75
aa(lp879
I16
aI0
ag75
ag75
aa(lp880
I16
aI0
ag75
ag75
aa(lp881
I16
aI0
ag75
ag75
aa(lp882
I16
aI0
ag75
ag75
aa(lp883
I16
aI0
ag75
ag75
aa(lp884
I16
aI0
ag75
ag75
aa(lp885
I16
aI0
ag75
ag75
aa(lp886
I16
aI0
ag75
ag75
aa(lp887
I16
aI0
ag75
ag75
aasS'results'
p888
(lp889
S'correct'
p890
ag890
ag890
ag890
ag890
ag890
ag890
ag890
ag890
ag890
ag890
ag890
ag890
ag890
ag890
ag890
ag890
asS'times'
p891
(lp892
F138.00400000000013
aF75.99900000000002
aF139.99900000000002
aF140.0
aF96.00099999999998
aF139.99900000000025
aF94.00099999999975
aF72.00099999999975
aF140.00099999999975
aF74.0
aF140.0
aF96.0
aF96.0
aF70.00099999999975
aF70.0010000000002
aF61.998999999999796
aF95.99800000000005
as.