(dp0
S'history'
p1
(lp2
(lp3
I0
aI0
aS'B1'
p4
ag4
aa(lp5
I0
aI0
ag4
ag4
aa(lp6
I0
aI0
ag4
ag4
aa(lp7
I0
aI0
ag4
ag4
aa(lp8
I0
aI0
ag4
ag4
aa(lp9
I0
aI0
ag4
ag4
aa(lp10
I0
aI0
ag4
ag4
aa(lp11
I0
aI0
ag4
ag4
aa(lp12
I0
aI0
ag4
ag4
aa(lp13
I0
aI0
ag4
ag4
aa(lp14
I0
aI0
ag4
ag4
aa(lp15
I0
aI0
ag4
ag4
aa(lp16
I0
aI0
ag4
ag4
aa(lp17
I0
aI0
ag4
ag4
aa(lp18
I0
aI0
ag4
ag4
aa(lp19
I0
aI0
ag4
ag4
aa(lp20
I0
aI0
ag4
ag4
aa(lp21
I0
aI0
ag4
ag4
aa(lp22
I0
aI0
ag4
ag4
aa(lp23
I0
aI0
ag4
ag4
aa(lp24
I0
aI0
ag4
ag4
aa(lp25
I0
aI0
ag4
ag4
aa(lp26
I0
aI0
ag4
ag4
aa(lp27
I0
aI0
ag4
ag4
aa(lp28
I0
aI0
ag4
ag4
aa(lp29
I0
aI0
ag4
ag4
aa(lp30
I0
aI0
ag4
ag4
aa(lp31
I0
aI0
ag4
ag4
aa(lp32
I0
aI0
ag4
ag4
aa(lp33
I0
aI0
ag4
ag4
aa(lp34
I0
aI0
ag4
ag4
aa(lp35
I0
aI0
ag4
ag4
aa(lp36
I0
aI0
ag4
ag4
aa(lp37
I0
aI0
ag4
ag4
aa(lp38
I0
aI0
ag4
ag4
aa(lp39
I0
aI0
ag4
ag4
aa(lp40
I0
aI0
ag4
ag4
aa(lp41
I0
aI0
ag4
ag4
aa(lp42
I0
aI0
ag4
ag4
aa(lp43
I0
aI0
ag4
ag4
aa(lp44
I0
aI0
ag4
ag4
aa(lp45
I0
aI0
ag4
ag4
aa(lp46
I0
aI0
ag4
ag4
aa(lp47
I0
aI0
ag4
ag4
aa(lp48
I0
aI0
ag4
ag4
aa(lp49
I0
aI0
ag4
ag4
aa(lp50
I0
aI0
ag4
ag4
aa(lp51
I0
aI0
ag4
ag4
aa(lp52
I0
aI0
ag4
ag4
aa(lp53
I0
aI0
ag4
ag4
aa(lp54
I0
aI0
ag4
ag4
aa(lp55
I1
aI1
aS'B3'
p56
ag56
aa(lp57
I1
aI1
ag56
ag56
aa(lp58
I1
aI1
ag56
ag56
aa(lp59
I1
aI1
ag56
ag56
aa(lp60
I1
aI1
ag56
ag56
aa(lp61
I1
aI1
ag56
ag56
aa(lp62
I1
aI1
ag56
ag56
aa(lp63
I1
aI1
ag56
ag56
aa(lp64
I1
aI1
ag56
ag56
aa(lp65
I1
aI1
ag56
ag56
aa(lp66
I1
aI1
ag56
ag56
aa(lp67
I1
aI1
ag56
ag56
aa(lp68
I1
aI1
ag56
ag56
aa(lp69
I1
aI1
ag56
ag56
aa(lp70
I1
aI1
ag56
ag56
aa(lp71
I1
aI1
ag56
ag56
aa(lp72
I1
aI1
ag56
ag56
aa(lp73
I1
aI1
ag56
ag56
aa(lp74
I1
aI1
ag56
ag56
aa(lp75
I1
aI1
ag56
ag56
aa(lp76
I1
aI1
ag56
ag56
aa(lp77
I1
aI1
ag56
ag56
aa(lp78
I1
aI1
ag56
ag56
aa(lp79
I1
aI1
ag56
ag56
aa(lp80
I1
aI1
ag56
ag56
aa(lp81
I1
aI1
ag56
ag56
aa(lp82
I1
aI1
ag56
ag56
aa(lp83
I1
aI1
ag56
ag56
aa(lp84
I1
aI1
ag56
ag56
aa(lp85
I1
aI1
ag56
ag56
aa(lp86
I1
aI1
ag56
ag56
aa(lp87
I1
aI1
ag56
ag56
aa(lp88
I1
aI1
ag56
ag56
aa(lp89
I1
aI1
ag56
ag56
aa(lp90
I1
aI1
ag56
ag56
aa(lp91
I1
aI1
ag56
ag56
aa(lp92
I1
aI1
ag56
ag56
aa(lp93
I1
aI1
ag56
ag56
aa(lp94
I1
aI1
ag56
ag56
aa(lp95
I1
aI1
ag56
ag56
aa(lp96
I1
aI1
ag56
ag56
aa(lp97
I1
aI1
ag56
ag56
aa(lp98
I1
aI1
ag56
ag56
aa(lp99
I1
aI1
ag56
ag56
aa(lp100
I1
aI1
ag56
ag56
aa(lp101
I1
aI1
ag56
ag56
aa(lp102
I1
aI1
ag56
ag56
aa(lp103
I1
aI1
ag56
ag56
aa(lp104
I1
aI1
ag56
ag56
aa(lp105
I1
aI1
ag56
ag56
aa(lp106
I1
aI1
ag56
ag56
aa(lp107
I1
aI1
ag56
ag56
aa(lp108
I1
aI1
ag56
ag56
aa(lp109
I1
aI1
ag56
ag56
aa(lp110
I1
aI1
ag56
ag56
aa(lp111
I1
aI1
ag56
ag56
aa(lp112
I1
aI1
ag56
ag56
aa(lp113
I1
aI1
ag56
ag56
aa(lp114
I1
aI1
ag56
ag56
aa(lp115
I1
aI1
ag56
ag56
aa(lp116
I1
aI1
ag56
ag56
aa(lp117
I1
aI1
ag56
ag56
aa(lp118
I1
aI1
ag56
ag56
aa(lp119
I1
aI1
ag56
ag56
aa(lp120
I1
aI1
ag56
ag56
aa(lp121
I1
aI1
ag56
ag56
aa(lp122
I1
aI1
ag56
ag56
aa(lp123
I1
aI1
ag56
ag56
aa(lp124
I1
aI1
ag56
ag56
aa(lp125
I1
aI1
ag56
ag56
aa(lp126
I2
aI8
ag56
ag56
aa(lp127
I2
aI8
ag56
ag56
aa(lp128
I2
aI8
ag56
ag56
aa(lp129
I2
aI8
ag56
ag56
aa(lp130
I2
aI8
ag56
ag56
aa(lp131
I2
aI8
ag56
ag56
aa(lp132
I2
aI8
ag56
ag56
aa(lp133
I2
aI8
ag56
ag56
aa(lp134
I2
aI8
ag56
ag56
aa(lp135
I2
aI8
ag56
ag56
aa(lp136
I2
aI8
ag56
ag56
aa(lp137
I2
aI8
ag56
ag56
aa(lp138
I2
aI8
ag56
ag56
aa(lp139
I2
aI8
ag56
ag56
aa(lp140
I2
aI8
ag56
ag56
aa(lp141
I2
aI8
ag56
ag56
aa(lp142
I2
aI8
ag56
ag56
aa(lp143
I2
aI8
ag56
ag56
aa(lp144
I2
aI8
ag56
ag56
aa(lp145
I2
aI8
ag56
ag56
aa(lp146
I2
aI8
ag56
ag56
aa(lp147
I2
aI8
ag56
ag56
aa(lp148
I2
aI8
ag56
ag56
aa(lp149
I2
aI8
ag56
ag56
aa(lp150
I2
aI8
ag56
ag56
aa(lp151
I2
aI8
ag56
ag56
aa(lp152
I2
aI8
ag56
ag56
aa(lp153
I2
aI8
ag56
ag56
aa(lp154
I2
aI8
ag56
ag56
aa(lp155
I2
aI8
ag56
ag56
aa(lp156
I2
aI8
ag56
ag56
aa(lp157
I2
aI8
ag56
ag56
aa(lp158
I2
aI8
ag56
ag56
aa(lp159
I2
aI8
ag56
ag56
aa(lp160
I2
aI8
ag56
ag56
aa(lp161
I2
aI8
ag56
ag56
aa(lp162
I2
aI8
ag56
ag56
aa(lp163
I2
aI8
ag56
ag56
aa(lp164
I2
aI8
ag56
ag56
aa(lp165
I2
aI8
ag56
ag56
aa(lp166
I2
aI8
ag56
ag56
aa(lp167
I2
aI8
ag56
ag56
aa(lp168
I2
aI8
ag56
ag56
aa(lp169
I2
aI8
ag56
ag56
aa(lp170
I2
aI8
ag56
ag56
aa(lp171
I2
aI8
ag56
ag56
aa(lp172
I2
aI8
ag56
ag56
aa(lp173
I2
aI8
ag56
ag56
aa(lp174
I2
aI8
ag56
ag56
aa(lp175
I2
aI8
ag56
ag56
aa(lp176
I2
aI8
ag56
ag56
aa(lp177
I2
aI8
ag56
ag56
aa(lp178
I2
aI8
ag56
ag56
aa(lp179
I2
aI8
ag56
ag56
aa(lp180
I2
aI8
ag56
ag56
aa(lp181
I2
aI8
ag56
ag56
aa(lp182
I2
aI8
ag56
ag56
aa(lp183
I2
aI8
ag56
ag56
aa(lp184
I2
aI8
ag56
ag56
aa(lp185
I2
aI8
ag56
ag56
aa(lp186
I2
aI8
ag56
ag56
aa(lp187
I2
aI8
ag56
ag56
aa(lp188
I2
aI8
ag56
ag56
aa(lp189
I2
aI8
ag56
ag56
aa(lp190
I2
aI8
ag56
ag56
aa(lp191
I2
aI8
ag56
ag56
aa(lp192
I2
aI8
ag56
ag56
aa(lp193
I2
aI8
ag56
ag56
aa(lp194
I2
aI8
ag56
ag56
aa(lp195
I2
aI8
ag56
ag56
aa(lp196
I3
aI5
aS'B2'
p197
ag197
aa(lp198
I3
aI5
ag197
ag197
aa(lp199
I3
aI5
ag197
ag197
aa(lp200
I3
aI5
ag197
ag197
aa(lp201
I3
aI5
ag197
ag197
aa(lp202
I3
aI5
ag197
ag197
aa(lp203
I3
aI5
ag197
ag197
aa(lp204
I3
aI5
ag197
ag197
aa(lp205
I3
aI5
ag197
ag197
aa(lp206
I3
aI5
ag197
ag197
aa(lp207
I3
aI5
ag197
ag197
aa(lp208
I3
aI5
ag197
ag197
aa(lp209
I3
aI5
ag197
ag197
aa(lp210
I3
aI5
ag197
ag197
aa(lp211
I3
aI5
ag197
ag197
aa(lp212
I3
aI5
ag197
ag197
aa(lp213
I3
aI5
ag197
ag197
aa(lp214
I3
aI5
ag197
ag197
aa(lp215
I3
aI5
ag197
ag197
aa(lp216
I3
aI5
ag197
ag197
aa(lp217
I3
aI5
ag197
ag197
aa(lp218
I3
aI5
ag197
ag197
aa(lp219
I3
aI5
ag197
ag197
aa(lp220
I3
aI5
ag197
ag197
aa(lp221
I3
aI5
ag197
ag197
aa(lp222
I3
aI5
ag197
ag197
aa(lp223
I3
aI5
ag197
ag197
aa(lp224
I3
aI5
ag197
ag197
aa(lp225
I3
aI5
ag197
ag197
aa(lp226
I3
aI5
ag197
ag197
aa(lp227
I3
aI5
ag197
ag197
aa(lp228
I3
aI5
ag197
ag197
aa(lp229
I3
aI5
ag197
ag197
aa(lp230
I3
aI5
ag197
ag197
aa(lp231
I3
aI5
ag197
ag197
aa(lp232
I3
aI5
ag197
ag197
aa(lp233
I4
aI4
ag4
ag4
aa(lp234
I4
aI4
ag4
ag4
aa(lp235
I4
aI4
ag4
ag4
aa(lp236
I4
aI4
ag4
ag4
aa(lp237
I4
aI4
ag4
ag4
aa(lp238
I4
aI4
ag4
ag4
aa(lp239
I4
aI4
ag4
ag4
aa(lp240
I4
aI4
ag4
ag4
aa(lp241
I4
aI4
ag4
ag4
aa(lp242
I4
aI4
ag4
ag4
aa(lp243
I4
aI4
ag4
ag4
aa(lp244
I4
aI4
ag4
ag4
aa(lp245
I4
aI4
ag4
ag4
aa(lp246
I4
aI4
ag4
ag4
aa(lp247
I4
aI4
ag4
ag4
aa(lp248
I4
aI4
ag4
ag4
aa(lp249
I4
aI4
ag4
ag4
aa(lp250
I4
aI4
ag4
ag4
aa(lp251
I4
aI4
ag4
ag4
aa(lp252
I4
aI4
ag4
ag4
aa(lp253
I4
aI4
ag4
ag4
aa(lp254
I4
aI4
ag4
ag4
aa(lp255
I4
aI4
ag4
ag4
aa(lp256
I4
aI4
ag4
ag4
aa(lp257
I4
aI4
ag4
ag4
aa(lp258
I4
aI4
ag4
ag4
aa(lp259
I4
aI4
ag4
ag4
aa(lp260
I4
aI4
ag4
ag4
aa(lp261
I4
aI4
ag4
ag4
aa(lp262
I4
aI4
ag4
ag4
aa(lp263
I4
aI4
ag4
ag4
aa(lp264
I4
aI4
ag4
ag4
aa(lp265
I4
aI4
ag4
ag4
aa(lp266
I4
aI4
ag4
ag4
aa(lp267
I4
aI4
ag4
ag4
aa(lp268
I4
aI4
ag4
ag4
aa(lp269
I4
aI4
ag4
ag4
aa(lp270
I4
aI4
ag4
ag4
aa(lp271
I4
aI4
ag4
ag4
aa(lp272
I4
aI4
ag4
ag4
aa(lp273
I4
aI4
ag4
ag4
aa(lp274
I4
aI4
ag4
ag4
aa(lp275
I4
aI4
ag4
ag4
aa(lp276
I4
aI4
ag4
ag4
aa(lp277
I4
aI4
ag4
ag4
aa(lp278
I4
aI4
ag4
ag4
aa(lp279
I4
aI4
ag4
ag4
aa(lp280
I4
aI4
ag4
ag4
aa(lp281
I5
aI3
ag197
ag197
aa(lp282
I5
aI3
ag197
ag197
aa(lp283
I5
aI3
ag197
ag197
aa(lp284
I5
aI3
ag197
ag197
aa(lp285
I5
aI3
ag197
ag197
aa(lp286
I5
aI3
ag197
ag197
aa(lp287
I5
aI3
ag197
ag197
aa(lp288
I5
aI3
ag197
ag197
aa(lp289
I5
aI3
ag197
ag197
aa(lp290
I5
aI3
ag197
ag197
aa(lp291
I5
aI3
ag197
ag197
aa(lp292
I5
aI3
ag197
ag197
aa(lp293
I5
aI3
ag197
ag197
aa(lp294
I5
aI3
ag197
ag197
aa(lp295
I5
aI3
ag197
ag197
aa(lp296
I5
aI3
ag197
ag197
aa(lp297
I5
aI3
ag197
ag197
aa(lp298
I5
aI3
ag197
ag197
aa(lp299
I5
aI3
ag197
ag197
aa(lp300
I5
aI3
ag197
ag197
aa(lp301
I5
aI3
ag197
ag197
aa(lp302
I5
aI3
ag197
ag197
aa(lp303
I5
aI3
ag197
ag197
aa(lp304
I5
aI3
ag197
ag197
aa(lp305
I5
aI3
ag197
ag197
aa(lp306
I5
aI3
ag197
ag197
aa(lp307
I5
aI3
ag197
ag197
aa(lp308
I5
aI3
ag197
ag197
aa(lp309
I5
aI3
ag197
ag197
aa(lp310
I5
aI3
ag197
ag197
aa(lp311
I5
aI3
ag197
ag197
aa(lp312
I5
aI3
ag197
ag197
aa(lp313
I5
aI3
ag197
ag197
aa(lp314
I5
aI3
ag197
ag197
aa(lp315
I5
aI3
ag197
ag197
aa(lp316
I5
aI3
ag197
ag197
aa(lp317
I5
aI3
ag197
ag197
aa(lp318
I6
aI5
ag197
ag197
aa(lp319
I6
aI5
ag197
ag197
aa(lp320
I6
aI5
ag197
ag197
aa(lp321
I6
aI5
ag197
ag197
aa(lp322
I6
aI5
ag197
ag197
aa(lp323
I6
aI5
ag197
ag197
aa(lp324
I6
aI5
ag197
ag197
aa(lp325
I6
aI5
ag197
ag197
aa(lp326
I6
aI5
ag197
ag197
aa(lp327
I6
aI5
ag197
ag197
aa(lp328
I6
aI5
ag197
ag197
aa(lp329
I6
aI5
ag197
ag197
aa(lp330
I6
aI5
ag197
ag197
aa(lp331
I6
aI5
ag197
ag197
aa(lp332
I6
aI5
ag197
ag197
aa(lp333
I6
aI5
ag197
ag197
aa(lp334
I6
aI5
ag197
ag197
aa(lp335
I6
aI5
ag197
ag197
aa(lp336
I6
aI5
ag197
ag197
aa(lp337
I6
aI5
ag197
ag197
aa(lp338
I6
aI5
ag197
ag197
aa(lp339
I6
aI5
ag197
ag197
aa(lp340
I6
aI5
ag197
ag197
aa(lp341
I6
aI5
ag197
ag197
aa(lp342
I6
aI5
ag197
ag197
aa(lp343
I6
aI5
ag197
ag197
aa(lp344
I6
aI5
ag197
ag197
aa(lp345
I6
aI5
ag197
ag197
aa(lp346
I6
aI5
ag197
ag197
aa(lp347
I6
aI5
ag197
ag197
aa(lp348
I6
aI5
ag197
ag197
aa(lp349
I6
aI5
ag197
ag197
aa(lp350
I6
aI5
ag197
ag197
aa(lp351
I6
aI5
ag197
ag197
aa(lp352
I6
aI5
ag197
ag197
aa(lp353
I6
aI5
ag197
ag197
aa(lp354
I6
aI5
ag197
ag197
aa(lp355
I7
aI7
ag4
ag4
aa(lp356
I7
aI7
ag4
ag4
aa(lp357
I7
aI7
ag4
ag4
aa(lp358
I7
aI7
ag4
ag4
aa(lp359
I7
aI7
ag4
ag4
aa(lp360
I7
aI7
ag4
ag4
aa(lp361
I7
aI7
ag4
ag4
aa(lp362
I7
aI7
ag4
ag4
aa(lp363
I7
aI7
ag4
ag4
aa(lp364
I7
aI7
ag4
ag4
aa(lp365
I7
aI7
ag4
ag4
aa(lp366
I7
aI7
ag4
ag4
aa(lp367
I7
aI7
ag4
ag4
aa(lp368
I7
aI7
ag4
ag4
aa(lp369
I7
aI7
ag4
ag4
aa(lp370
I7
aI7
ag4
ag4
aa(lp371
I7
aI7
ag4
ag4
aa(lp372
I7
aI7
ag4
ag4
aa(lp373
I7
aI7
ag4
ag4
aa(lp374
I7
aI7
ag4
ag4
aa(lp375
I7
aI7
ag4
ag4
aa(lp376
I7
aI7
ag4
ag4
aa(lp377
I7
aI7
ag4
ag4
aa(lp378
I7
aI7
ag4
ag4
aa(lp379
I7
aI7
ag4
ag4
aa(lp380
I7
aI7
ag4
ag4
aa(lp381
I7
aI7
ag4
ag4
aa(lp382
I7
aI7
ag4
ag4
aa(lp383
I7
aI7
ag4
ag4
aa(lp384
I7
aI7
ag4
ag4
aa(lp385
I7
aI7
ag4
ag4
aa(lp386
I7
aI7
ag4
ag4
aa(lp387
I7
aI7
ag4
ag4
aa(lp388
I7
aI7
ag4
ag4
aa(lp389
I7
aI7
ag4
ag4
aa(lp390
I7
aI7
ag4
ag4
aa(lp391
I7
aI7
ag4
ag4
aa(lp392
I7
aI7
ag4
ag4
aa(lp393
I7
aI7
ag4
ag4
aa(lp394
I7
aI7
ag4
ag4
aa(lp395
I7
aI7
ag4
ag4
aa(lp396
I7
aI7
ag4
ag4
aa(lp397
I7
aI7
ag4
ag4
aa(lp398
I7
aI7
ag4
ag4
aa(lp399
I7
aI7
ag4
ag4
aa(lp400
I7
aI7
ag4
ag4
aa(lp401
I7
aI7
ag4
ag4
aa(lp402
I7
aI7
ag4
ag4
aa(lp403
I7
aI7
ag4
ag4
aa(lp404
I7
aI7
ag4
ag4
aa(lp405
I8
aI7
ag4
ag4
aa(lp406
I8
aI7
ag4
ag4
aa(lp407
I8
aI7
ag4
ag4
aa(lp408
I8
aI7
ag4
ag4
aa(lp409
I8
aI7
ag4
ag4
aa(lp410
I8
aI7
ag4
ag4
aa(lp411
I8
aI7
ag4
ag4
aa(lp412
I8
aI7
ag4
ag4
aa(lp413
I8
aI7
ag4
ag4
aa(lp414
I8
aI7
ag4
ag4
aa(lp415
I8
aI7
ag4
ag4
aa(lp416
I8
aI7
ag4
ag4
aa(lp417
I8
aI7
ag4
ag4
aa(lp418
I8
aI7
ag4
ag4
aa(lp419
I8
aI7
ag4
ag4
aa(lp420
I8
aI7
ag4
ag4
aa(lp421
I8
aI7
ag4
ag4
aa(lp422
I8
aI7
ag4
ag4
aa(lp423
I8
aI7
ag4
ag4
aa(lp424
I8
aI7
ag4
ag4
aa(lp425
I8
aI7
ag4
ag4
aa(lp426
I8
aI7
ag4
ag4
aa(lp427
I8
aI7
ag4
ag4
aa(lp428
I8
aI7
ag4
ag4
aa(lp429
I8
aI7
ag4
ag4
aa(lp430
I8
aI7
ag4
ag4
aa(lp431
I8
aI7
ag4
ag4
aa(lp432
I8
aI7
ag4
ag4
aa(lp433
I8
aI7
ag4
ag4
aa(lp434
I8
aI7
ag4
ag4
aa(lp435
I8
aI7
ag4
ag4
aa(lp436
I8
aI7
ag4
ag4
aa(lp437
I8
aI7
ag4
ag4
aa(lp438
I8
aI7
ag4
ag4
aa(lp439
I8
aI7
ag4
ag4
aa(lp440
I8
aI7
ag4
ag4
aa(lp441
I8
aI7
ag4
ag4
aa(lp442
I8
aI7
ag4
ag4
aa(lp443
I8
aI7
ag4
ag4
aa(lp444
I8
aI7
ag4
ag4
aa(lp445
I8
aI7
ag4
ag4
aa(lp446
I8
aI7
ag4
ag4
aa(lp447
I8
aI7
ag4
ag4
aa(lp448
I8
aI7
ag4
ag4
aa(lp449
I8
aI7
ag4
ag4
aa(lp450
I8
aI7
ag4
ag4
aa(lp451
I8
aI7
ag4
ag4
aa(lp452
I8
aI7
ag4
ag4
aa(lp453
I8
aI7
ag4
ag4
aa(lp454
I9
aI2
ag197
ag197
aa(lp455
I9
aI2
ag197
ag197
aa(lp456
I9
aI2
ag197
ag197
aa(lp457
I9
aI2
ag197
ag197
aa(lp458
I9
aI2
ag197
ag197
aa(lp459
I9
aI2
ag197
ag197
aa(lp460
I9
aI2
ag197
ag197
aa(lp461
I9
aI2
ag197
ag197
aa(lp462
I9
aI2
ag197
ag197
aa(lp463
I9
aI2
ag197
ag197
aa(lp464
I9
aI2
ag197
ag197
aa(lp465
I9
aI2
ag197
ag197
aa(lp466
I9
aI2
ag197
ag197
aa(lp467
I9
aI2
ag197
ag197
aa(lp468
I9
aI2
ag197
ag197
aa(lp469
I9
aI2
ag197
ag197
aa(lp470
I9
aI2
ag197
ag197
aa(lp471
I9
aI2
ag197
ag197
aa(lp472
I9
aI2
ag197
ag197
aa(lp473
I9
aI2
ag197
ag197
aa(lp474
I9
aI2
ag197
ag197
aa(lp475
I9
aI2
ag197
ag197
aa(lp476
I9
aI2
ag197
ag197
aa(lp477
I9
aI2
ag197
ag197
aa(lp478
I9
aI2
ag197
ag197
aa(lp479
I9
aI2
ag197
ag197
aa(lp480
I9
aI2
ag197
ag197
aa(lp481
I9
aI2
ag197
ag197
aa(lp482
I9
aI2
ag197
ag197
aa(lp483
I9
aI2
ag197
ag197
aa(lp484
I9
aI2
ag197
ag197
aa(lp485
I9
aI2
ag197
ag197
aa(lp486
I9
aI2
ag197
ag197
aa(lp487
I9
aI2
ag197
ag197
aa(lp488
I9
aI2
ag197
ag197
aa(lp489
I9
aI2
ag197
ag197
aa(lp490
I9
aI2
ag197
ag197
aa(lp491
I10
aI4
ag4
ag4
aa(lp492
I10
aI4
ag4
ag4
aa(lp493
I10
aI4
ag4
ag4
aa(lp494
I10
aI4
ag4
ag4
aa(lp495
I10
aI4
ag4
ag4
aa(lp496
I10
aI4
ag4
ag4
aa(lp497
I10
aI4
ag4
ag4
aa(lp498
I10
aI4
ag4
ag4
aa(lp499
I10
aI4
ag4
ag4
aa(lp500
I10
aI4
ag4
ag4
aa(lp501
I10
aI4
ag4
ag4
aa(lp502
I10
aI4
ag4
ag4
aa(lp503
I10
aI4
ag4
ag4
aa(lp504
I10
aI4
ag4
ag4
aa(lp505
I10
aI4
ag4
ag4
aa(lp506
I10
aI4
ag4
ag4
aa(lp507
I10
aI4
ag4
ag4
aa(lp508
I10
aI4
ag4
ag4
aa(lp509
I10
aI4
ag4
ag4
aa(lp510
I10
aI4
ag4
ag4
aa(lp511
I10
aI4
ag4
ag4
aa(lp512
I10
aI4
ag4
ag4
aa(lp513
I10
aI4
ag4
ag4
aa(lp514
I10
aI4
ag4
ag4
aa(lp515
I10
aI4
ag4
ag4
aa(lp516
I10
aI4
ag4
ag4
aa(lp517
I10
aI4
ag4
ag4
aa(lp518
I10
aI4
ag4
ag4
aa(lp519
I10
aI4
ag4
ag4
aa(lp520
I10
aI4
ag4
ag4
aa(lp521
I10
aI4
ag4
ag4
aa(lp522
I10
aI4
ag4
ag4
aa(lp523
I10
aI4
ag4
ag4
aa(lp524
I10
aI4
ag4
ag4
aa(lp525
I10
aI4
ag4
ag4
aa(lp526
I10
aI4
ag4
ag4
aa(lp527
I10
aI4
ag4
ag4
aa(lp528
I10
aI4
ag4
ag4
aa(lp529
I10
aI4
ag4
ag4
aa(lp530
I10
aI4
ag4
ag4
aa(lp531
I10
aI4
ag4
ag4
aa(lp532
I10
aI4
ag4
ag4
aa(lp533
I10
aI4
ag4
ag4
aa(lp534
I10
aI4
ag4
ag4
aa(lp535
I10
aI4
ag4
ag4
aa(lp536
I10
aI4
ag4
ag4
aa(lp537
I10
aI4
ag4
ag4
aa(lp538
I10
aI4
ag4
ag4
aa(lp539
I10
aI4
ag4
ag4
aa(lp540
I11
aI0
ag4
ag4
aa(lp541
I11
aI0
ag4
ag4
aa(lp542
I11
aI0
ag4
ag4
aa(lp543
I11
aI0
ag4
ag4
aa(lp544
I11
aI0
ag4
ag4
aa(lp545
I11
aI0
ag4
ag4
aa(lp546
I11
aI0
ag4
ag4
aa(lp547
I11
aI0
ag4
ag4
aa(lp548
I11
aI0
ag4
ag4
aa(lp549
I11
aI0
ag4
ag4
aa(lp550
I11
aI0
ag4
ag4
aa(lp551
I11
aI0
ag4
ag4
aa(lp552
I11
aI0
ag4
ag4
aa(lp553
I11
aI0
ag4
ag4
aa(lp554
I11
aI0
ag4
ag4
aa(lp555
I11
aI0
ag4
ag4
aa(lp556
I11
aI0
ag4
ag4
aa(lp557
I11
aI0
ag4
ag4
aa(lp558
I11
aI0
ag4
ag4
aa(lp559
I11
aI0
ag4
ag4
aa(lp560
I11
aI0
ag4
ag4
aa(lp561
I11
aI0
ag4
ag4
aa(lp562
I11
aI0
ag4
ag4
aa(lp563
I11
aI0
ag4
ag4
aa(lp564
I11
aI0
ag4
ag4
aa(lp565
I11
aI0
ag4
ag4
aa(lp566
I11
aI0
ag4
ag4
aa(lp567
I11
aI0
ag4
ag4
aa(lp568
I11
aI0
ag4
ag4
aa(lp569
I11
aI0
ag4
ag4
aa(lp570
I11
aI0
ag4
ag4
aa(lp571
I11
aI0
ag4
ag4
aa(lp572
I11
aI0
ag4
ag4
aa(lp573
I11
aI0
ag4
ag4
aa(lp574
I11
aI0
ag4
ag4
aa(lp575
I11
aI0
ag4
ag4
aa(lp576
I11
aI0
ag4
ag4
aa(lp577
I11
aI0
ag4
ag4
aa(lp578
I11
aI0
ag4
ag4
aa(lp579
I11
aI0
ag4
ag4
aa(lp580
I11
aI0
ag4
ag4
aa(lp581
I11
aI0
ag4
ag4
aa(lp582
I11
aI0
ag4
ag4
aa(lp583
I11
aI0
ag4
ag4
aa(lp584
I11
aI0
ag4
ag4
aa(lp585
I11
aI0
ag4
ag4
aa(lp586
I11
aI0
ag4
ag4
aa(lp587
I11
aI0
ag4
ag4
aa(lp588
I11
aI0
ag4
ag4
aa(lp589
I12
aI1
ag56
ag56
aa(lp590
I12
aI1
ag56
ag56
aa(lp591
I12
aI1
ag56
ag56
aa(lp592
I12
aI1
ag56
ag56
aa(lp593
I12
aI1
ag56
ag56
aa(lp594
I12
aI1
ag56
ag56
aa(lp595
I12
aI1
ag56
ag56
aa(lp596
I12
aI1
ag56
ag56
aa(lp597
I12
aI1
ag56
ag56
aa(lp598
I12
aI1
ag56
ag56
aa(lp599
I12
aI1
ag56
ag56
aa(lp600
I12
aI1
ag56
ag56
aa(lp601
I12
aI1
ag56
ag56
aa(lp602
I12
aI1
ag56
ag56
aa(lp603
I12
aI1
ag56
ag56
aa(lp604
I12
aI1
ag56
ag56
aa(lp605
I12
aI1
ag56
ag56
aa(lp606
I12
aI1
ag56
ag56
aa(lp607
I12
aI1
ag56
ag56
aa(lp608
I12
aI1
ag56
ag56
aa(lp609
I12
aI1
ag56
ag56
aa(lp610
I12
aI1
ag56
ag56
aa(lp611
I12
aI1
ag56
ag56
aa(lp612
I12
aI1
ag56
ag56
aa(lp613
I12
aI1
ag56
ag56
aa(lp614
I12
aI1
ag56
ag56
aa(lp615
I12
aI1
ag56
ag56
aa(lp616
I12
aI1
ag56
ag56
aa(lp617
I12
aI1
ag56
ag56
aa(lp618
I12
aI1
ag56
ag56
aa(lp619
I12
aI1
ag56
ag56
aa(lp620
I12
aI1
ag56
ag56
aa(lp621
I12
aI1
ag56
ag56
aa(lp622
I12
aI1
ag56
ag56
aa(lp623
I12
aI1
ag56
ag56
aa(lp624
I12
aI1
ag56
ag56
aa(lp625
I12
aI1
ag56
ag56
aa(lp626
I12
aI1
ag56
ag56
aa(lp627
I12
aI1
ag56
ag56
aa(lp628
I12
aI1
ag56
ag56
aa(lp629
I12
aI1
ag56
ag56
aa(lp630
I12
aI1
ag56
ag56
aa(lp631
I12
aI1
ag56
ag56
aa(lp632
I12
aI1
ag56
ag56
aa(lp633
I12
aI1
ag56
ag56
aa(lp634
I12
aI1
ag56
ag56
aa(lp635
I12
aI1
ag56
ag56
aa(lp636
I12
aI1
ag56
ag56
aa(lp637
I12
aI1
ag56
ag56
aa(lp638
I12
aI1
ag56
ag56
aa(lp639
I12
aI1
ag56
ag56
aa(lp640
I12
aI1
ag56
ag56
aa(lp641
I12
aI1
ag56
ag56
aa(lp642
I12
aI1
ag56
ag56
aa(lp643
I12
aI1
ag56
ag56
aa(lp644
I12
aI1
ag56
ag56
aa(lp645
I12
aI1
ag56
ag56
aa(lp646
I12
aI1
ag56
ag56
aa(lp647
I12
aI1
ag56
ag56
aa(lp648
I12
aI1
ag56
ag56
aa(lp649
I12
aI1
ag56
ag56
aa(lp650
I12
aI1
ag56
ag56
aa(lp651
I12
aI1
ag56
ag56
aa(lp652
I12
aI1
ag56
ag56
aa(lp653
I12
aI1
ag56
ag56
aa(lp654
I12
aI1
ag56
ag56
aa(lp655
I12
aI1
ag56
ag56
aa(lp656
I12
aI1
ag56
ag56
aa(lp657
I12
aI1
ag56
ag56
aa(lp658
I12
aI1
ag56
ag56
aa(lp659
I13
aI6
ag56
ag56
aa(lp660
I13
aI6
ag56
ag56
aa(lp661
I13
aI6
ag56
ag56
aa(lp662
I13
aI6
ag56
ag56
aa(lp663
I13
aI6
ag56
ag56
aa(lp664
I13
aI6
ag56
ag56
aa(lp665
I13
aI6
ag56
ag56
aa(lp666
I13
aI6
ag56
ag56
aa(lp667
I13
aI6
ag56
ag56
aa(lp668
I13
aI6
ag56
ag56
aa(lp669
I13
aI6
ag56
ag56
aa(lp670
I13
aI6
ag56
ag56
aa(lp671
I13
aI6
ag56
ag56
aa(lp672
I13
aI6
ag56
ag56
aa(lp673
I13
aI6
ag56
ag56
aa(lp674
I13
aI6
ag56
ag56
aa(lp675
I13
aI6
ag56
ag56
aa(lp676
I13
aI6
ag56
ag56
aa(lp677
I13
aI6
ag56
ag56
aa(lp678
I13
aI6
ag56
ag56
aa(lp679
I13
aI6
ag56
ag56
aa(lp680
I13
aI6
ag56
ag56
aa(lp681
I13
aI6
ag56
ag56
aa(lp682
I13
aI6
ag56
ag56
aa(lp683
I13
aI6
ag56
ag56
aa(lp684
I13
aI6
ag56
ag56
aa(lp685
I13
aI6
ag56
ag56
aa(lp686
I13
aI6
ag56
ag56
aa(lp687
I13
aI6
ag56
ag56
aa(lp688
I13
aI6
ag56
ag56
aa(lp689
I13
aI6
ag56
ag56
aa(lp690
I13
aI6
ag56
ag56
aa(lp691
I13
aI6
ag56
ag56
aa(lp692
I13
aI6
ag56
ag56
aa(lp693
I13
aI6
ag56
ag56
aa(lp694
I13
aI6
ag56
ag56
aa(lp695
I13
aI6
ag56
ag56
aa(lp696
I13
aI6
ag56
ag56
aa(lp697
I13
aI6
ag56
ag56
aa(lp698
I13
aI6
ag56
ag56
aa(lp699
I13
aI6
ag56
ag56
aa(lp700
I13
aI6
ag56
ag56
aa(lp701
I13
aI6
ag56
ag56
aa(lp702
I13
aI6
ag56
ag56
aa(lp703
I13
aI6
ag56
ag56
aa(lp704
I13
aI6
ag56
ag56
aa(lp705
I13
aI6
ag56
ag56
aa(lp706
I13
aI6
ag56
ag56
aa(lp707
I13
aI6
ag56
ag56
aa(lp708
I13
aI6
ag56
ag56
aa(lp709
I13
aI6
ag56
ag56
aa(lp710
I13
aI6
ag56
ag56
aa(lp711
I13
aI6
ag56
ag56
aa(lp712
I13
aI6
ag56
ag56
aa(lp713
I13
aI6
ag56
ag56
aa(lp714
I13
aI6
ag56
ag56
aa(lp715
I13
aI6
ag56
ag56
aa(lp716
I13
aI6
ag56
ag56
aa(lp717
I13
aI6
ag56
ag56
aa(lp718
I13
aI6
ag56
ag56
aa(lp719
I13
aI6
ag56
ag56
aa(lp720
I13
aI6
ag56
ag56
aa(lp721
I13
aI6
ag56
ag56
aa(lp722
I13
aI6
ag56
ag56
aa(lp723
I13
aI6
ag56
ag56
aa(lp724
I13
aI6
ag56
ag56
aa(lp725
I13
aI6
ag56
ag56
aa(lp726
I13
aI6
ag56
ag56
aa(lp727
I13
aI6
ag56
ag56
aa(lp728
I13
aI6
ag56
ag56
aa(lp729
I14
aI8
ag56
ag56
aa(lp730
I14
aI8
ag56
ag56
aa(lp731
I14
aI8
ag56
ag56
aa(lp732
I14
aI8
ag56
ag56
aa(lp733
I14
aI8
ag56
ag56
aa(lp734
I14
aI8
ag56
ag56
aa(lp735
I14
aI8
ag56
ag56
aa(lp736
I14
aI8
ag56
ag56
aa(lp737
I14
aI8
ag56
ag56
aa(lp738
I14
aI8
ag56
ag56
aa(lp739
I14
aI8
ag56
ag56
aa(lp740
I14
aI8
ag56
ag56
aa(lp741
I14
aI8
ag56
ag56
aa(lp742
I14
aI8
ag56
ag56
aa(lp743
I14
aI8
ag56
ag56
aa(lp744
I14
aI8
ag56
ag56
aa(lp745
I14
aI8
ag56
ag56
aa(lp746
I14
aI8
ag56
ag56
aa(lp747
I14
aI8
ag56
ag56
aa(lp748
I14
aI8
ag56
ag56
aa(lp749
I14
aI8
ag56
ag56
aa(lp750
I14
aI8
ag56
ag56
aa(lp751
I14
aI8
ag56
ag56
aa(lp752
I14
aI8
ag56
ag56
aa(lp753
I14
aI8
ag56
ag56
aa(lp754
I14
aI8
ag56
ag56
aa(lp755
I14
aI8
ag56
ag56
aa(lp756
I14
aI8
ag56
ag56
aa(lp757
I14
aI8
ag56
ag56
aa(lp758
I14
aI8
ag56
ag56
aa(lp759
I14
aI8
ag56
ag56
aa(lp760
I14
aI8
ag56
ag56
aa(lp761
I14
aI8
ag56
ag56
aa(lp762
I14
aI8
ag56
ag56
aa(lp763
I14
aI8
ag56
ag56
aa(lp764
I14
aI8
ag56
ag56
aa(lp765
I14
aI8
ag56
ag56
aa(lp766
I14
aI8
ag56
ag56
aa(lp767
I14
aI8
ag56
ag56
aa(lp768
I14
aI8
ag56
ag56
aa(lp769
I14
aI8
ag56
ag56
aa(lp770
I14
aI8
ag56
ag56
aa(lp771
I14
aI8
ag56
ag56
aa(lp772
I14
aI8
ag56
ag56
aa(lp773
I14
aI8
ag56
ag56
aa(lp774
I14
aI8
ag56
ag56
aa(lp775
I14
aI8
ag56
ag56
aa(lp776
I14
aI8
ag56
ag56
aa(lp777
I14
aI8
ag56
ag56
aa(lp778
I14
aI8
ag56
ag56
aa(lp779
I14
aI8
ag56
ag56
aa(lp780
I14
aI8
ag56
ag56
aa(lp781
I14
aI8
ag56
ag56
aa(lp782
I14
aI8
ag56
ag56
aa(lp783
I14
aI8
ag56
ag56
aa(lp784
I14
aI8
ag56
ag56
aa(lp785
I14
aI8
ag56
ag56
aa(lp786
I14
aI8
ag56
ag56
aa(lp787
I14
aI8
ag56
ag56
aa(lp788
I14
aI8
ag56
ag56
aa(lp789
I14
aI8
ag56
ag56
aa(lp790
I14
aI8
ag56
ag56
aa(lp791
I14
aI8
ag56
ag56
aa(lp792
I14
aI8
ag56
ag56
aa(lp793
I14
aI8
ag56
ag56
aa(lp794
I14
aI8
ag56
ag56
aa(lp795
I14
aI8
ag56
ag56
aa(lp796
I14
aI8
ag56
ag56
aa(lp797
I14
aI8
ag56
ag56
aa(lp798
I14
aI8
ag56
ag56
aa(lp799
I15
aI2
ag197
ag197
aa(lp800
I15
aI2
ag197
ag197
aa(lp801
I15
aI2
ag197
ag197
aa(lp802
I15
aI2
ag197
ag197
aa(lp803
I15
aI2
ag197
ag197
aa(lp804
I15
aI2
ag197
ag197
aa(lp805
I15
aI2
ag197
ag197
aa(lp806
I15
aI2
ag197
ag197
aa(lp807
I15
aI2
ag197
ag197
aa(lp808
I15
aI2
ag197
ag197
aa(lp809
I15
aI2
ag197
ag197
aa(lp810
I15
aI2
ag197
ag197
aa(lp811
I15
aI2
ag197
ag197
aa(lp812
I15
aI2
ag197
ag197
aa(lp813
I15
aI2
ag197
ag197
aa(lp814
I15
aI2
ag197
ag197
aa(lp815
I15
aI2
ag197
ag197
aa(lp816
I15
aI2
ag197
ag197
aa(lp817
I15
aI2
ag197
ag197
aa(lp818
I15
aI2
ag197
ag197
aa(lp819
I15
aI2
ag197
ag197
aa(lp820
I15
aI2
ag197
ag197
aa(lp821
I15
aI2
ag197
ag197
aa(lp822
I15
aI2
ag197
ag197
aa(lp823
I15
aI2
ag197
ag197
aa(lp824
I15
aI2
ag197
ag197
aa(lp825
I15
aI2
ag197
ag197
aa(lp826
I15
aI2
ag197
ag197
aa(lp827
I15
aI2
ag197
ag197
aa(lp828
I15
aI2
ag197
ag197
aa(lp829
I15
aI2
ag197
ag197
aa(lp830
I15
aI2
ag197
ag197
aa(lp831
I15
aI2
ag197
ag197
aa(lp832
I15
aI2
ag197
ag197
aa(lp833
I15
aI2
ag197
ag197
aa(lp834
I15
aI2
ag197
ag197
aa(lp835
I15
aI2
ag197
ag197
aa(lp836
I16
aI3
ag197
ag197
aa(lp837
I16
aI3
ag197
ag197
aa(lp838
I16
aI3
ag197
ag197
aa(lp839
I16
aI3
ag197
ag197
aa(lp840
I16
aI3
ag197
ag197
aa(lp841
I16
aI3
ag197
ag197
aa(lp842
I16
aI3
ag197
ag197
aa(lp843
I16
aI3
ag197
ag197
aa(lp844
I16
aI3
ag197
ag197
aa(lp845
I16
aI3
ag197
ag197
aa(lp846
I16
aI3
ag197
ag197
aa(lp847
I16
aI3
ag197
ag197
aa(lp848
I16
aI3
ag197
ag197
aa(lp849
I16
aI3
ag197
ag197
aa(lp850
I16
aI3
ag197
ag197
aa(lp851
I16
aI3
ag197
ag197
aa(lp852
I16
aI3
ag197
ag197
aa(lp853
I16
aI3
ag197
ag197
aa(lp854
I16
aI3
ag197
ag197
aa(lp855
I16
aI3
ag197
ag197
aa(lp856
I16
aI3
ag197
ag197
aa(lp857
I16
aI3
ag197
ag197
aa(lp858
I16
aI3
ag197
ag197
aa(lp859
I16
aI3
ag197
ag197
aa(lp860
I16
aI3
ag197
ag197
aa(lp861
I16
aI3
ag197
ag197
aa(lp862
I16
aI3
ag197
ag197
aa(lp863
I16
aI3
ag197
ag197
aa(lp864
I16
aI3
ag197
ag197
aa(lp865
I16
aI3
ag197
ag197
aa(lp866
I16
aI3
ag197
ag197
aa(lp867
I16
aI3
ag197
ag197
aa(lp868
I16
aI3
ag197
ag197
aa(lp869
I16
aI3
ag197
ag197
aa(lp870
I16
aI3
ag197
ag197
aa(lp871
I16
aI3
ag197
ag197
aa(lp872
I17
aI6
ag56
ag56
aa(lp873
I17
aI6
ag56
ag56
aa(lp874
I17
aI6
ag56
ag56
aa(lp875
I17
aI6
ag56
ag56
aa(lp876
I17
aI6
ag56
ag56
aa(lp877
I17
aI6
ag56
ag56
aa(lp878
I17
aI6
ag56
ag56
aa(lp879
I17
aI6
ag56
ag56
aa(lp880
I17
aI6
ag56
ag56
aa(lp881
I17
aI6
ag56
ag56
aa(lp882
I17
aI6
ag56
ag56
aa(lp883
I17
aI6
ag56
ag56
aa(lp884
I17
aI6
ag56
ag56
aa(lp885
I17
aI6
ag56
ag56
aa(lp886
I17
aI6
ag56
ag56
aa(lp887
I17
aI6
ag56
ag56
aa(lp888
I17
aI6
ag56
ag56
aa(lp889
I17
aI6
ag56
ag56
aa(lp890
I17
aI6
ag56
ag56
aa(lp891
I17
aI6
ag56
ag56
aa(lp892
I17
aI6
ag56
ag56
aa(lp893
I17
aI6
ag56
ag56
aa(lp894
I17
aI6
ag56
ag56
aa(lp895
I17
aI6
ag56
ag56
aa(lp896
I17
aI6
ag56
ag56
aa(lp897
I17
aI6
ag56
ag56
aa(lp898
I17
aI6
ag56
ag56
aa(lp899
I17
aI6
ag56
ag56
aa(lp900
I17
aI6
ag56
ag56
aa(lp901
I17
aI6
ag56
ag56
aa(lp902
I17
aI6
ag56
ag56
aa(lp903
I17
aI6
ag56
ag56
aa(lp904
I17
aI6
ag56
ag56
aa(lp905
I17
aI6
ag56
ag56
aa(lp906
I17
aI6
ag56
ag56
aa(lp907
I17
aI6
ag56
ag56
aa(lp908
I17
aI6
ag56
ag56
aa(lp909
I17
aI6
ag56
ag56
aa(lp910
I17
aI6
ag56
ag56
aa(lp911
I17
aI6
ag56
ag56
aa(lp912
I17
aI6
ag56
ag56
aa(lp913
I17
aI6
ag56
ag56
aa(lp914
I17
aI6
ag56
ag56
aa(lp915
I17
aI6
ag56
ag56
aa(lp916
I17
aI6
ag56
ag56
aa(lp917
I17
aI6
ag56
ag56
aa(lp918
I17
aI6
ag56
ag56
aa(lp919
I17
aI6
ag56
ag56
aa(lp920
I17
aI6
ag56
ag56
aa(lp921
I17
aI6
ag56
ag56
aa(lp922
I17
aI6
ag56
ag56
aa(lp923
I17
aI6
ag56
ag56
aa(lp924
I17
aI6
ag56
ag56
aa(lp925
I17
aI6
ag56
ag56
aa(lp926
I17
aI6
ag56
ag56
aa(lp927
I17
aI6
ag56
ag56
aa(lp928
I17
aI6
ag56
ag56
aa(lp929
I17
aI6
ag56
ag56
aa(lp930
I17
aI6
ag56
ag56
aa(lp931
I17
aI6
ag56
ag56
aa(lp932
I17
aI6
ag56
ag56
aa(lp933
I17
aI6
ag56
ag56
aa(lp934
I17
aI6
ag56
ag56
aa(lp935
I17
aI6
ag56
ag56
aa(lp936
I17
aI6
ag56
ag56
aa(lp937
I17
aI6
ag56
ag56
aa(lp938
I17
aI6
ag56
ag56
aa(lp939
I17
aI6
ag56
ag56
aa(lp940
I17
aI6
ag56
ag56
aa(lp941
I17
aI6
ag56
ag56
aasS'results'
p942
(lp943
S'correct'
p944
ag944
ag944
ag944
ag944
ag944
ag944
ag944
ag944
ag944
ag944
ag944
ag944
ag944
ag944
ag944
ag944
ag944
asS'times'
p945
(lp946
F95.0
aF140.0
aF140.0
aF69.9989999999998
aF94.0
aF72.0010000000002
aF71.99799999999959
aF98.0
aF95.9989999999998
aF72.0
aF95.9989999999998
aF95.9989999999998
aF140.0
aF139.9989999999998
aF140.0049999999992
aF71.996000000001
aF70.0010000000002
aF139.99599999999919
as.